                                      1 ;--------------------------------------------------------
                                      2 ; File Created by SDCC : free open source ANSI-C Compiler
                                      3 ; Version 4.2.0 #13081 (MINGW64)
                                      4 ;--------------------------------------------------------
                                      5 	.module main
                                      6 	.optsdcc -mz80
                                      7 	
                                      8 ;--------------------------------------------------------
                                      9 ; Public variables in this module
                                     10 ;--------------------------------------------------------
                                     11 	.globl _main
                                     12 	.globl _UpdateKey
                                     13 	.globl _WeightedPick
                                     14 	.globl _FindStateIndex
                                     15 	.globl _Pletter_UnpackToVRAM
                                     16 	.globl _Math_GetRandom16
                                     17 	.globl _Print_SetColor
                                     18 	.globl _Print_DrawText
                                     19 	.globl _VDP_ReadVRAM_128K
                                     20 	.globl _VDP_SetMode
                                     21 	.globl _VDP_ClearVRAM
                                     22 	.globl _g_CurrentKey
                                     23 	.globl _g_SLTSL
                                     24 	.globl _g_GRPACY
                                     25 	.globl _g_GRPACX
                                     26 	.globl _g_LOGOPR
                                     27 	.globl _g_CMASK
                                     28 	.globl _g_CLOC
                                     29 	.globl _g_FNKSTR
                                     30 	.globl _g_ATRBYT
                                     31 	.globl _g_BDRCLR
                                     32 	.globl _g_BAKCLR
                                     33 	.globl _g_FORCLR
                                     34 	.globl _g_CSRX
                                     35 	.globl _g_CSRY
                                     36 	.globl _g_CLIKSW
                                     37 	.globl _g_MLTPAT
                                     38 	.globl _g_MLTATR
                                     39 	.globl _g_MLTCGP
                                     40 	.globl _g_MLTCOL
                                     41 	.globl _g_MLTNAM
                                     42 	.globl _g_GRPPAT
                                     43 	.globl _g_GRPATR
                                     44 	.globl _g_GRPCGP
                                     45 	.globl _g_GRPCOL
                                     46 	.globl _g_GRPNAM
                                     47 	.globl _g_T32PAT
                                     48 	.globl _g_T32ATR
                                     49 	.globl _g_T32CGP
                                     50 	.globl _g_T32COL
                                     51 	.globl _g_T32NAM
                                     52 	.globl _g_TXTPAT
                                     53 	.globl _g_TXTATR
                                     54 	.globl _g_TXTCGP
                                     55 	.globl _g_TXTCOL
                                     56 	.globl _g_TXTNAM
                                     57 	.globl _g_CLMLST
                                     58 	.globl _g_CRTCNT
                                     59 	.globl _g_LINLEN
                                     60 	.globl _g_LINL32
                                     61 	.globl _g_LINL40
                                     62 	.globl _Alphabet
                                     63 	.globl _g_BDOS
                                     64 	.globl _g_MASTER
                                     65 	.globl _g_RAMAD3
                                     66 	.globl _g_RAMAD2
                                     67 	.globl _g_RAMAD1
                                     68 	.globl _g_RAMAD0
                                     69 	.globl _g_BREAKV
                                     70 	.globl _g_DISKVE
                                     71 	.globl _g_KANJTABLE
                                     72 	.globl _g_STRSRC
                                     73 	.globl _g_SUBRID
                                     74 	.globl _g_CHAR_16
                                     75 	.globl _g_MSXMID
                                     76 	.globl _g_MSXVER
                                     77 	.globl _g_ROMVersion
                                     78 	.globl _g_BASRVN
                                     79 	.globl _g_VDP_DW
                                     80 	.globl _g_VDP_DR
                                     81 	.globl _g_CGTABL
                                     82 	.globl _g_SVFFFD
                                     83 	.globl _g_RG27SAV
                                     84 	.globl _g_RG26SAV
                                     85 	.globl _g_RG25SAV
                                     86 	.globl _g_SVFFF8
                                     87 	.globl _g_MINROM
                                     88 	.globl _g_RG23SAV
                                     89 	.globl _g_RG22SAV
                                     90 	.globl _g_RG21SAV
                                     91 	.globl _g_RG20SAV
                                     92 	.globl _g_RG19SAV
                                     93 	.globl _g_RG18SAV
                                     94 	.globl _g_RG17SAV
                                     95 	.globl _g_RG16SAV
                                     96 	.globl _g_RG15SAV
                                     97 	.globl _g_RG14SAV
                                     98 	.globl _g_RG13SAV
                                     99 	.globl _g_RG12SAV
                                    100 	.globl _g_RG11SAV
                                    101 	.globl _g_RG10SAV
                                    102 	.globl _g_RG09SAV
                                    103 	.globl _g_RG08SAV
                                    104 	.globl _g_PROCNM
                                    105 	.globl _g_SLTWRK
                                    106 	.globl _g_SLTATR
                                    107 	.globl _g_SLTTBL
                                    108 	.globl _g_EXPTBL
                                    109 	.globl _g_MNROM
                                    110 	.globl _g_DRWANG
                                    111 	.globl _g_DRWSCL
                                    112 	.globl _g_DRWFLG
                                    113 	.globl _g_GYPOS
                                    114 	.globl _g_GXPOS
                                    115 	.globl _g_BRDATR
                                    116 	.globl _g_CASPRV
                                    117 	.globl _g_OLDSCR
                                    118 	.globl _g_SCRMOD
                                    119 	.globl _g_FLBMEM
                                    120 	.globl _g_KANAMD
                                    121 	.globl _g_KANAST
                                    122 	.globl _g_CAPST
                                    123 	.globl _g_CSTYLE
                                    124 	.globl _g_CSRSW
                                    125 	.globl _g_INSFLG
                                    126 	.globl _g_ESCCNT
                                    127 	.globl _g_GRPHED
                                    128 	.globl _g_WINWID
                                    129 	.globl _g_LOWLIM
                                    130 	.globl _g_INTCNT
                                    131 	.globl _g_INTVAL
                                    132 	.globl _g_JIFFY
                                    133 	.globl _g_PADX
                                    134 	.globl _g_PADY
                                    135 	.globl _g_INTFLG
                                    136 	.globl _g_RTYCNT
                                    137 	.globl _g_TRPTBL
                                    138 	.globl _g_HIMEM
                                    139 	.globl _g_BOTTOM
                                    140 	.globl _g_PATWRK
                                    141 	.globl _g_LINWRK
                                    142 	.globl _g_KEYBUF
                                    143 	.globl _g_NEWKEY
                                    144 	.globl _g_OLDKEY
                                    145 	.globl _g_CLIKFL
                                    146 	.globl _g_ONGSBF
                                    147 	.globl _g_FNKFLG
                                    148 	.globl _g_FNKSWI
                                    149 	.globl _g_CODSAV
                                    150 	.globl _g_FSTPOS
                                    151 	.globl _g_LINTTB
                                    152 	.globl _g_BASROM
                                    153 	.globl _g_ENSTOP
                                    154 	.globl _g_VCBC
                                    155 	.globl _g_VCBB
                                    156 	.globl _g_VCBA
                                    157 	.globl _g_PLYCNT
                                    158 	.globl _g_MUSICF
                                    159 	.globl _g_QUEUEN
                                    160 	.globl _g_MCLPTR
                                    161 	.globl _g_MCLLEN
                                    162 	.globl _g_SAVVOL
                                    163 	.globl _g_VOICEN
                                    164 	.globl _g_SAVSP
                                    165 	.globl _g_PRSCNT
                                    166 	.globl _g_LSTMOD
                                    167 	.globl _g_LSTCOM
                                    168 	.globl _g_COMMSK
                                    169 	.globl _g_ESTBLS
                                    170 	.globl _g_FLAGS
                                    171 	.globl _g_ERRORS
                                    172 	.globl _g_DATCNT
                                    173 	.globl _g_DEVNUM
                                    174 	.globl _g_OLDINT
                                    175 	.globl _g_OLDSTT
                                    176 	.globl _g_MEXBIh
                                    177 	.globl _g_RSIQLN
                                    178 	.globl _g_RSFCB
                                    179 	.globl _g_TOCNT
                                    180 	.globl _g_RSTMP
                                    181 	.globl _g_YSAVE
                                    182 	.globl _g_XSAVE
                                    183 	.globl _g_NORUSE
                                    184 	.globl _g_MODE
                                    185 	.globl _g_ROMA
                                    186 	.globl _g_CHRCNT
                                    187 	.globl _g_EXBRSA
                                    188 	.globl _g_AVCSAV
                                    189 	.globl _g_ACPAGE
                                    190 	.globl _g_DPPAGE
                                    191 	.globl _g_RS2IQ
                                    192 	.globl _g_VOICCQ
                                    193 	.globl _g_VOICBQ
                                    194 	.globl _g_VOICAQ
                                    195 	.globl _g_QUEBAK
                                    196 	.globl _g_QUETAB
                                    197 	.globl _g_ASPCT2
                                    198 	.globl _g_ASPCT1
                                    199 	.globl _g_HEADER
                                    200 	.globl _g_HIGH
                                    201 	.globl _g_LOW
                                    202 	.globl _g_CS240
                                    203 	.globl _g_CS120
                                    204 	.globl _g_GETPNT
                                    205 	.globl _g_PUTPNT
                                    206 	.globl _g_REPCNT
                                    207 	.globl _g_SCNCNT
                                    208 	.globl _g_FRCNEW
                                    209 	.globl _g_QUEUES
                                    210 	.globl _g_MINUPD
                                    211 	.globl _g_MAXUPD
                                    212 	.globl _g_TRGFLG
                                    213 	.globl _g_STATFL
                                    214 	.globl _g_RG7SAV
                                    215 	.globl _g_RG6SAV
                                    216 	.globl _g_RG5SAV
                                    217 	.globl _g_RG4SAV
                                    218 	.globl _g_RG3SAV
                                    219 	.globl _g_RG2SAV
                                    220 	.globl _g_RG1SAV
                                    221 	.globl _g_RG0SAV
                                    222 	.globl _g_CNSDFG
                                    223 	.globl _g_USRTAB
                                    224 	.globl _g_CLPRIM
                                    225 	.globl _g_WRPRIM
                                    226 	.globl _g_RDPRIM
                                    227 ;--------------------------------------------------------
                                    228 ; special function registers
                                    229 ;--------------------------------------------------------
                         000000A8   230 _g_PortPrimarySlot	=	0x00a8
                         000000A9   231 _g_PortReadKeyboard	=	0x00a9
                         000000AA   232 _g_PortAccessKeyboard	=	0x00aa
                         000000AB   233 _g_PortControl	=	0x00ab
                         00000098   234 _g_VDP_DataPort	=	0x0098
                         00000099   235 _g_VDP_RegPort	=	0x0099
                         00000099   236 _g_VDP_AddrPort	=	0x0099
                         00000099   237 _g_VDP_StatPort	=	0x0099
                         0000009A   238 _g_VDP_PalPort	=	0x009a
                         0000009B   239 _g_VDP_IRegPort	=	0x009b
                         000000A0   240 _g_PSG_RegPort	=	0x00a0
                         000000A1   241 _g_PSG_DataPort	=	0x00a1
                         000000A2   242 _g_PSG_StatPort	=	0x00a2
                         00000010   243 _g_PSG_Ext_RegPort	=	0x0010
                         00000011   244 _g_PSG_Ext_DataPort	=	0x0011
                         00000012   245 _g_PSG_Ext_StatPort	=	0x0012
                         0000007C   246 _g_MSXMusic_IndexPort	=	0x007c
                         0000007D   247 _g_MSXMusic_DataPort	=	0x007d
                         000000C0   248 _g_MSXAudio_IndexPort	=	0x00c0
                         000000C1   249 _g_MSXAudio_DataPort	=	0x00c1
                         000000C2   250 _g_MSXAudio_IndexPort2	=	0x00c2
                         000000C3   251 _g_MSXAudio_DataPort2	=	0x00c3
                         000000B4   252 _g_RTC_AddrPort	=	0x00b4
                         000000B5   253 _g_RTC_DataPort	=	0x00b5
                                    254 ;--------------------------------------------------------
                                    255 ; ram data
                                    256 ;--------------------------------------------------------
                                    257 	.area _DATA
                         0000F3AE   258 _g_LINL40	=	0xf3ae
                         0000F3AF   259 _g_LINL32	=	0xf3af
                         0000F3B0   260 _g_LINLEN	=	0xf3b0
                         0000F3B1   261 _g_CRTCNT	=	0xf3b1
                         0000F3B2   262 _g_CLMLST	=	0xf3b2
                         0000F3B3   263 _g_TXTNAM	=	0xf3b3
                         0000F3B5   264 _g_TXTCOL	=	0xf3b5
                         0000F3B7   265 _g_TXTCGP	=	0xf3b7
                         0000F3B9   266 _g_TXTATR	=	0xf3b9
                         0000F3BB   267 _g_TXTPAT	=	0xf3bb
                         0000F3BD   268 _g_T32NAM	=	0xf3bd
                         0000F3BF   269 _g_T32COL	=	0xf3bf
                         0000F3C1   270 _g_T32CGP	=	0xf3c1
                         0000F3C3   271 _g_T32ATR	=	0xf3c3
                         0000F3C5   272 _g_T32PAT	=	0xf3c5
                         0000F3C7   273 _g_GRPNAM	=	0xf3c7
                         0000F3C9   274 _g_GRPCOL	=	0xf3c9
                         0000F3CB   275 _g_GRPCGP	=	0xf3cb
                         0000F3CD   276 _g_GRPATR	=	0xf3cd
                         0000F3CF   277 _g_GRPPAT	=	0xf3cf
                         0000F3D1   278 _g_MLTNAM	=	0xf3d1
                         0000F3D3   279 _g_MLTCOL	=	0xf3d3
                         0000F3D5   280 _g_MLTCGP	=	0xf3d5
                         0000F3D7   281 _g_MLTATR	=	0xf3d7
                         0000F3D9   282 _g_MLTPAT	=	0xf3d9
                         0000F3DB   283 _g_CLIKSW	=	0xf3db
                         0000F3DC   284 _g_CSRY	=	0xf3dc
                         0000F3DD   285 _g_CSRX	=	0xf3dd
                         0000F3E9   286 _g_FORCLR	=	0xf3e9
                         0000F3EA   287 _g_BAKCLR	=	0xf3ea
                         0000F3EB   288 _g_BDRCLR	=	0xf3eb
                         0000F3F2   289 _g_ATRBYT	=	0xf3f2
                         0000F87F   290 _g_FNKSTR	=	0xf87f
                         0000F92A   291 _g_CLOC	=	0xf92a
                         0000F92C   292 _g_CMASK	=	0xf92c
                         0000FB02   293 _g_LOGOPR	=	0xfb02
                         0000FCB7   294 _g_GRPACX	=	0xfcb7
                         0000FCB9   295 _g_GRPACY	=	0xfcb9
                         0000FFFF   296 _g_SLTSL	=	0xffff
    00000000                        297 _main_block_196609_914:
    00000000                        298 	.ds 8
                                    299 ;--------------------------------------------------------
                                    300 ; ram data
                                    301 ;--------------------------------------------------------
                                    302 	.area _INITIALIZED
    00000000                        303 _g_CurrentKey::
    00000000                        304 	.ds 4
                                    305 ;--------------------------------------------------------
                                    306 ; absolute external ram data
                                    307 ;--------------------------------------------------------
                                    308 	.area _DABS (ABS)
                                    309 ;--------------------------------------------------------
                                    310 ; global & static initialisations
                                    311 ;--------------------------------------------------------
                                    312 	.area _HOME
                                    313 	.area _GSINIT
                                    314 	.area _GSFINAL
                                    315 	.area _GSINIT
                                    316 ;--------------------------------------------------------
                                    317 ; Home
                                    318 ;--------------------------------------------------------
                                    319 	.area _HOME
                                    320 	.area _HOME
                                    321 ;--------------------------------------------------------
                                    322 ; code
                                    323 ;--------------------------------------------------------
                                    324 	.area _CODE
                                    325 ;./main.c:28: u16 FindStateIndex(u32 target_key) {
                                    326 ;	---------------------------------
                                    327 ; Function FindStateIndex
                                    328 ; ---------------------------------
    00000000                        329 _FindStateIndex::
    00000000 DD E5            [15]  330 	push	ix
    00000002 DD 21 00 00      [14]  331 	ld	ix,#0
    00000006 DD 39            [15]  332 	add	ix,sp
    00000008 FD 21 ED FF      [14]  333 	ld	iy, #-19
    0000000C FD 39            [15]  334 	add	iy, sp
    0000000E FD F9            [10]  335 	ld	sp, iy
    00000010 DD 73 FC         [19]  336 	ld	-4 (ix), e
    00000013 DD 72 FD         [19]  337 	ld	-3 (ix), d
    00000016 DD 75 FE         [19]  338 	ld	-2 (ix), l
    00000019 DD 74 FF         [19]  339 	ld	-1 (ix), h
                                    340 ;./main.c:29: i16 low = 0;
    0000001C AF               [ 4]  341 	xor	a, a
    0000001D DD 77 F0         [19]  342 	ld	-16 (ix), a
    00000020 DD 77 F1         [19]  343 	ld	-15 (ix), a
                                    344 ;./main.c:30: i16 high = STATE_COUNT - 1;
    00000023 DD 36 F2 FB      [19]  345 	ld	-14 (ix), #0xfb
    00000027 DD 36 F3 13      [19]  346 	ld	-13 (ix), #0x13
                                    347 ;./main.c:33: while (low <= high) {
    0000002B                        348 00106$:
    0000002B DD 7E F2         [19]  349 	ld	a, -14 (ix)
    0000002E DD 96 F0         [19]  350 	sub	a, -16 (ix)
    00000031 DD 7E F3         [19]  351 	ld	a, -13 (ix)
    00000034 DD 9E F1         [19]  352 	sbc	a, -15 (ix)
    00000037 E2r3Cr00         [10]  353 	jp	PO, 00137$
    0000003A EE 80            [ 7]  354 	xor	a, #0x80
    0000003C                        355 00137$:
    0000003C FAr28r01         [10]  356 	jp	M, 00108$
                                    357 ;./main.c:34: i16 mid = low + (high - low) / 2;
    0000003F DD 7E F2         [19]  358 	ld	a, -14 (ix)
    00000042 DD 96 F0         [19]  359 	sub	a, -16 (ix)
    00000045 5F               [ 4]  360 	ld	e, a
    00000046 DD 7E F3         [19]  361 	ld	a, -13 (ix)
    00000049 DD 9E F1         [19]  362 	sbc	a, -15 (ix)
    0000004C 57               [ 4]  363 	ld	d, a
    0000004D 4B               [ 4]  364 	ld	c, e
    0000004E 42               [ 4]  365 	ld	b, d
    0000004F CB 7A            [ 8]  366 	bit	7, d
    00000051 28 03            [12]  367 	jr	Z, 00111$
    00000053 4B               [ 4]  368 	ld	c, e
    00000054 42               [ 4]  369 	ld	b, d
    00000055 03               [ 6]  370 	inc	bc
    00000056                        371 00111$:
    00000056 CB 28            [ 8]  372 	sra	b
    00000058 CB 19            [ 8]  373 	rr	c
    0000005A DD 6E F0         [19]  374 	ld	l, -16 (ix)
                                    375 ;	spillPairReg hl
                                    376 ;	spillPairReg hl
    0000005D DD 66 F1         [19]  377 	ld	h, -15 (ix)
                                    378 ;	spillPairReg hl
                                    379 ;	spillPairReg hl
    00000060 09               [11]  380 	add	hl, bc
    00000061 E5               [11]  381 	push	hl
    00000062 FD E1            [14]  382 	pop	iy
                                    383 ;./main.c:39: VDP_ReadVRAM((u16)ADDR_INDEX + (mid * 3), 0, key_bytes, 3);
    00000064 FD E5            [15]  384 	push	iy
    00000066 C1               [10]  385 	pop	bc
    00000067 69               [ 4]  386 	ld	l, c
    00000068 60               [ 4]  387 	ld	h, b
    00000069 29               [11]  388 	add	hl, hl
    0000006A 09               [11]  389 	add	hl, bc
    0000006B 5D               [ 4]  390 	ld	e, l
    0000006C 7C               [ 4]  391 	ld	a, h
    0000006D C6 10            [ 7]  392 	add	a, #0x10
    0000006F 57               [ 4]  393 	ld	d, a
    00000070 C5               [11]  394 	push	bc
    00000071 FD E5            [15]  395 	push	iy
    00000073 21 03 00         [10]  396 	ld	hl, #0x0003
    00000076 E5               [11]  397 	push	hl
    00000077 21 06 00         [10]  398 	ld	hl, #6
    0000007A 39               [11]  399 	add	hl, sp
    0000007B E5               [11]  400 	push	hl
    0000007C AF               [ 4]  401 	xor	a, a
    0000007D F5               [11]  402 	push	af
    0000007E 33               [ 6]  403 	inc	sp
    0000007F EB               [ 4]  404 	ex	de, hl
    00000080 CDr00r00         [17]  405 	call	_VDP_ReadVRAM_128K
    00000083 FD E1            [14]  406 	pop	iy
    00000085 C1               [10]  407 	pop	bc
                                    408 ;./main.c:40: mid_key = ((u32)key_bytes[0] << 16) | ((u32)key_bytes[1] << 8) | (u32)key_bytes[2];
    00000086 DD 5E ED         [19]  409 	ld	e, -19 (ix)
    00000089 16 00            [ 7]  410 	ld	d, #0x00
    0000008B 21 00 00         [10]  411 	ld	hl, #0x0000
    0000008E EB               [ 4]  412 	ex	de, hl
    0000008F 11 00 00         [10]  413 	ld	de, #0x0000
    00000092 DD 73 F4         [19]  414 	ld	-12 (ix), e
    00000095 DD 72 F5         [19]  415 	ld	-11 (ix), d
    00000098 DD 75 F6         [19]  416 	ld	-10 (ix), l
    0000009B DD 74 F7         [19]  417 	ld	-9 (ix), h
    0000009E DD 5E EE         [19]  418 	ld	e, -18 (ix)
    000000A1 16 00            [ 7]  419 	ld	d, #0x00
    000000A3 21 00 00         [10]  420 	ld	hl, #0x0000
    000000A6 65               [ 4]  421 	ld	h, l
                                    422 ;	spillPairReg hl
                                    423 ;	spillPairReg hl
    000000A7 6A               [ 4]  424 	ld	l, d
                                    425 ;	spillPairReg hl
                                    426 ;	spillPairReg hl
    000000A8 53               [ 4]  427 	ld	d, e
    000000A9 1E 00            [ 7]  428 	ld	e, #0x00
    000000AB DD 7E F4         [19]  429 	ld	a, -12 (ix)
    000000AE B3               [ 4]  430 	or	a, e
    000000AF DD 77 F8         [19]  431 	ld	-8 (ix), a
    000000B2 DD 7E F5         [19]  432 	ld	a, -11 (ix)
    000000B5 B2               [ 4]  433 	or	a, d
    000000B6 DD 77 F9         [19]  434 	ld	-7 (ix), a
    000000B9 DD 7E F6         [19]  435 	ld	a, -10 (ix)
    000000BC B5               [ 4]  436 	or	a, l
    000000BD DD 77 FA         [19]  437 	ld	-6 (ix), a
    000000C0 DD 7E F7         [19]  438 	ld	a, -9 (ix)
    000000C3 B4               [ 4]  439 	or	a, h
    000000C4 DD 77 FB         [19]  440 	ld	-5 (ix), a
    000000C7 DD 5E EF         [19]  441 	ld	e, -17 (ix)
    000000CA 16 00            [ 7]  442 	ld	d, #0x00
    000000CC 21 00 00         [10]  443 	ld	hl, #0x0000
    000000CF 7B               [ 4]  444 	ld	a, e
    000000D0 DD B6 F8         [19]  445 	or	a, -8 (ix)
    000000D3 5F               [ 4]  446 	ld	e, a
    000000D4 7A               [ 4]  447 	ld	a, d
    000000D5 DD B6 F9         [19]  448 	or	a, -7 (ix)
    000000D8 57               [ 4]  449 	ld	d, a
    000000D9 7D               [ 4]  450 	ld	a, l
    000000DA DD B6 FA         [19]  451 	or	a, -6 (ix)
    000000DD 6F               [ 4]  452 	ld	l, a
                                    453 ;	spillPairReg hl
                                    454 ;	spillPairReg hl
    000000DE 7C               [ 4]  455 	ld	a, h
    000000DF DD B6 FB         [19]  456 	or	a, -5 (ix)
                                    457 ;	spillPairReg hl
                                    458 ;	spillPairReg hl
                                    459 ;./main.c:41: mid_key &= KEY_MASK;
    000000E2 26 00            [ 7]  460 	ld	h, #0x00
                                    461 ;	spillPairReg hl
                                    462 ;	spillPairReg hl
                                    463 ;./main.c:43: if (mid_key == target_key) return (u16)mid;
    000000E4 DD 7E FC         [19]  464 	ld	a, -4 (ix)
    000000E7 93               [ 4]  465 	sub	a, e
    000000E8 20 18            [12]  466 	jr	NZ, 00102$
    000000EA DD 7E FD         [19]  467 	ld	a, -3 (ix)
    000000ED 92               [ 4]  468 	sub	a, d
    000000EE 20 12            [12]  469 	jr	NZ, 00102$
    000000F0 7D               [ 4]  470 	ld	a, l
    000000F1 DD 96 FE         [19]  471 	sub	a, -2 (ix)
    000000F4 20 0C            [12]  472 	jr	NZ, 00102$
    000000F6 7C               [ 4]  473 	ld	a, h
    000000F7 DD 96 FF         [19]  474 	sub	a, -1 (ix)
    000000FA 20 06            [12]  475 	jr	NZ, 00102$
    000000FC FD E5            [15]  476 	push	iy
    000000FE D1               [10]  477 	pop	de
    000000FF C3r2Br01         [10]  478 	jp	00109$
    00000102                        479 00102$:
                                    480 ;./main.c:44: if (mid_key < target_key)  low = mid + 1;
    00000102 7B               [ 4]  481 	ld	a, e
    00000103 DD 96 FC         [19]  482 	sub	a, -4 (ix)
    00000106 7A               [ 4]  483 	ld	a, d
    00000107 DD 9E FD         [19]  484 	sbc	a, -3 (ix)
    0000010A 7D               [ 4]  485 	ld	a, l
    0000010B DD 9E FE         [19]  486 	sbc	a, -2 (ix)
    0000010E 7C               [ 4]  487 	ld	a, h
    0000010F DD 9E FF         [19]  488 	sbc	a, -1 (ix)
    00000112 30 0A            [12]  489 	jr	NC, 00104$
    00000114 03               [ 6]  490 	inc	bc
    00000115 DD 71 F0         [19]  491 	ld	-16 (ix), c
    00000118 DD 70 F1         [19]  492 	ld	-15 (ix), b
    0000011B C3r2Br00         [10]  493 	jp	00106$
    0000011E                        494 00104$:
                                    495 ;./main.c:45: else                       high = mid - 1;
    0000011E 0B               [ 6]  496 	dec	bc
    0000011F DD 71 F2         [19]  497 	ld	-14 (ix), c
    00000122 DD 70 F3         [19]  498 	ld	-13 (ix), b
    00000125 C3r2Br00         [10]  499 	jp	00106$
    00000128                        500 00108$:
                                    501 ;./main.c:47: return 0xFFFF; // Not found
    00000128 11 FF FF         [10]  502 	ld	de, #0xffff
    0000012B                        503 00109$:
                                    504 ;./main.c:48: }
    0000012B DD F9            [10]  505 	ld	sp, ix
    0000012D DD E1            [14]  506 	pop	ix
    0000012F C9               [10]  507 	ret
                         0000F380   508 _g_RDPRIM	=	0xf380
                         0000F385   509 _g_WRPRIM	=	0xf385
                         0000F38C   510 _g_CLPRIM	=	0xf38c
                         0000F39A   511 _g_USRTAB	=	0xf39a
                         0000F3DE   512 _g_CNSDFG	=	0xf3de
                         0000F3DF   513 _g_RG0SAV	=	0xf3df
                         0000F3E0   514 _g_RG1SAV	=	0xf3e0
                         0000F3E1   515 _g_RG2SAV	=	0xf3e1
                         0000F3E2   516 _g_RG3SAV	=	0xf3e2
                         0000F3E3   517 _g_RG4SAV	=	0xf3e3
                         0000F3E4   518 _g_RG5SAV	=	0xf3e4
                         0000F3E5   519 _g_RG6SAV	=	0xf3e5
                         0000F3E6   520 _g_RG7SAV	=	0xf3e6
                         0000F3E7   521 _g_STATFL	=	0xf3e7
                         0000F3E8   522 _g_TRGFLG	=	0xf3e8
                         0000F3EC   523 _g_MAXUPD	=	0xf3ec
                         0000F3EF   524 _g_MINUPD	=	0xf3ef
                         0000F3F3   525 _g_QUEUES	=	0xf3f3
                         0000F3F5   526 _g_FRCNEW	=	0xf3f5
                         0000F3F6   527 _g_SCNCNT	=	0xf3f6
                         0000F3F7   528 _g_REPCNT	=	0xf3f7
                         0000F3F8   529 _g_PUTPNT	=	0xf3f8
                         0000F3FA   530 _g_GETPNT	=	0xf3fa
                         0000F3FC   531 _g_CS120	=	0xf3fc
                         0000F401   532 _g_CS240	=	0xf401
                         0000F406   533 _g_LOW	=	0xf406
                         0000F408   534 _g_HIGH	=	0xf408
                         0000F40A   535 _g_HEADER	=	0xf40a
                         0000F40B   536 _g_ASPCT1	=	0xf40b
                         0000F40D   537 _g_ASPCT2	=	0xf40d
                         0000F959   538 _g_QUETAB	=	0xf959
                         0000F971   539 _g_QUEBAK	=	0xf971
                         0000F975   540 _g_VOICAQ	=	0xf975
                         0000F9F5   541 _g_VOICBQ	=	0xf9f5
                         0000FA75   542 _g_VOICCQ	=	0xfa75
                         0000FAF5   543 _g_RS2IQ	=	0xfaf5
                         0000FAF5   544 _g_DPPAGE	=	0xfaf5
                         0000FAF6   545 _g_ACPAGE	=	0xfaf6
                         0000FAF7   546 _g_AVCSAV	=	0xfaf7
                         0000FAF8   547 _g_EXBRSA	=	0xfaf8
                         0000FAF9   548 _g_CHRCNT	=	0xfaf9
                         0000FAFA   549 _g_ROMA	=	0xfafa
                         0000FAFC   550 _g_MODE	=	0xfafc
                         0000FAFD   551 _g_NORUSE	=	0xfafd
                         0000FAFE   552 _g_XSAVE	=	0xfafe
                         0000FB00   553 _g_YSAVE	=	0xfb00
                         0000FB03   554 _g_RSTMP	=	0xfb03
                         0000FB03   555 _g_TOCNT	=	0xfb03
                         0000FB04   556 _g_RSFCB	=	0xfb04
                         0000FB06   557 _g_RSIQLN	=	0xfb06
                         0000FB07   558 _g_MEXBIh	=	0xfb07
                         0000FB0C   559 _g_OLDSTT	=	0xfb0c
                         0000FB0C   560 _g_OLDINT	=	0xfb0c
                         0000FB16   561 _g_DEVNUM	=	0xfb16
                         0000FB17   562 _g_DATCNT	=	0xfb17
                         0000FB1A   563 _g_ERRORS	=	0xfb1a
                         0000FB1B   564 _g_FLAGS	=	0xfb1b
                         0000FB1C   565 _g_ESTBLS	=	0xfb1c
                         0000FB1D   566 _g_COMMSK	=	0xfb1d
                         0000FB1E   567 _g_LSTCOM	=	0xfb1e
                         0000FB1F   568 _g_LSTMOD	=	0xfb1f
                         0000FB35   569 _g_PRSCNT	=	0xfb35
                         0000FB36   570 _g_SAVSP	=	0xfb36
                         0000FB38   571 _g_VOICEN	=	0xfb38
                         0000FB39   572 _g_SAVVOL	=	0xfb39
                         0000FB3B   573 _g_MCLLEN	=	0xfb3b
                         0000FB3C   574 _g_MCLPTR	=	0xfb3c
                         0000FB3E   575 _g_QUEUEN	=	0xfb3e
                         0000FB3F   576 _g_MUSICF	=	0xfb3f
                         0000FB40   577 _g_PLYCNT	=	0xfb40
                         0000FB41   578 _g_VCBA	=	0xfb41
                         0000FB66   579 _g_VCBB	=	0xfb66
                         0000FB8B   580 _g_VCBC	=	0xfb8b
                         0000FBB0   581 _g_ENSTOP	=	0xfbb0
                         0000FBB1   582 _g_BASROM	=	0xfbb1
                         0000FBB2   583 _g_LINTTB	=	0xfbb2
                         0000FBCA   584 _g_FSTPOS	=	0xfbca
                         0000FBCC   585 _g_CODSAV	=	0xfbcc
                         0000FBCD   586 _g_FNKSWI	=	0xfbcd
                         0000FBCE   587 _g_FNKFLG	=	0xfbce
                         0000FBD8   588 _g_ONGSBF	=	0xfbd8
                         0000FBD9   589 _g_CLIKFL	=	0xfbd9
                         0000FBDA   590 _g_OLDKEY	=	0xfbda
                         0000FBE5   591 _g_NEWKEY	=	0xfbe5
                         0000FBF0   592 _g_KEYBUF	=	0xfbf0
                         0000FC18   593 _g_LINWRK	=	0xfc18
                         0000FC40   594 _g_PATWRK	=	0xfc40
                         0000FC48   595 _g_BOTTOM	=	0xfc48
                         0000FC4A   596 _g_HIMEM	=	0xfc4a
                         0000FC4C   597 _g_TRPTBL	=	0xfc4c
                         0000FC9A   598 _g_RTYCNT	=	0xfc9a
                         0000FC9B   599 _g_INTFLG	=	0xfc9b
                         0000FC9C   600 _g_PADY	=	0xfc9c
                         0000FC9D   601 _g_PADX	=	0xfc9d
                         0000FC9E   602 _g_JIFFY	=	0xfc9e
                         0000FCA0   603 _g_INTVAL	=	0xfca0
                         0000FCA2   604 _g_INTCNT	=	0xfca2
                         0000FCA4   605 _g_LOWLIM	=	0xfca4
                         0000FCA5   606 _g_WINWID	=	0xfca5
                         0000FCA6   607 _g_GRPHED	=	0xfca6
                         0000FCA7   608 _g_ESCCNT	=	0xfca7
                         0000FCA8   609 _g_INSFLG	=	0xfca8
                         0000FCA9   610 _g_CSRSW	=	0xfca9
                         0000FCAA   611 _g_CSTYLE	=	0xfcaa
                         0000FCAB   612 _g_CAPST	=	0xfcab
                         0000FCAC   613 _g_KANAST	=	0xfcac
                         0000FCAD   614 _g_KANAMD	=	0xfcad
                         0000FCAE   615 _g_FLBMEM	=	0xfcae
                         0000FCAF   616 _g_SCRMOD	=	0xfcaf
                         0000FCB0   617 _g_OLDSCR	=	0xfcb0
                         0000FCB1   618 _g_CASPRV	=	0xfcb1
                         0000FCB2   619 _g_BRDATR	=	0xfcb2
                         0000FCB3   620 _g_GXPOS	=	0xfcb3
                         0000FCB5   621 _g_GYPOS	=	0xfcb5
                         0000FCBB   622 _g_DRWFLG	=	0xfcbb
                         0000FCBC   623 _g_DRWSCL	=	0xfcbc
                         0000FCBD   624 _g_DRWANG	=	0xfcbd
                         0000FCC1   625 _g_MNROM	=	0xfcc1
                         0000FCC1   626 _g_EXPTBL	=	0xfcc1
                         0000FCC5   627 _g_SLTTBL	=	0xfcc5
                         0000FCC9   628 _g_SLTATR	=	0xfcc9
                         0000FD09   629 _g_SLTWRK	=	0xfd09
                         0000FD89   630 _g_PROCNM	=	0xfd89
                         0000FFE7   631 _g_RG08SAV	=	0xffe7
                         0000FFE8   632 _g_RG09SAV	=	0xffe8
                         0000FFE9   633 _g_RG10SAV	=	0xffe9
                         0000FFEA   634 _g_RG11SAV	=	0xffea
                         0000FFEB   635 _g_RG12SAV	=	0xffeb
                         0000FFEC   636 _g_RG13SAV	=	0xffec
                         0000FFED   637 _g_RG14SAV	=	0xffed
                         0000FFEE   638 _g_RG15SAV	=	0xffee
                         0000FFEF   639 _g_RG16SAV	=	0xffef
                         0000FFF0   640 _g_RG17SAV	=	0xfff0
                         0000FFF1   641 _g_RG18SAV	=	0xfff1
                         0000FFF2   642 _g_RG19SAV	=	0xfff2
                         0000FFF3   643 _g_RG20SAV	=	0xfff3
                         0000FFF4   644 _g_RG21SAV	=	0xfff4
                         0000FFF5   645 _g_RG22SAV	=	0xfff5
                         0000FFF6   646 _g_RG23SAV	=	0xfff6
                         0000FFF7   647 _g_MINROM	=	0xfff7
                         0000FFF8   648 _g_SVFFF8	=	0xfff8
                         0000FFFA   649 _g_RG25SAV	=	0xfffa
                         0000FFFB   650 _g_RG26SAV	=	0xfffb
                         0000FFFC   651 _g_RG27SAV	=	0xfffc
                         0000FFFD   652 _g_SVFFFD	=	0xfffd
                         00000004   653 _g_CGTABL	=	0x0004
                         00000006   654 _g_VDP_DR	=	0x0006
                         00000007   655 _g_VDP_DW	=	0x0007
                         0000002B   656 _g_BASRVN	=	0x002b
                         0000002B   657 _g_ROMVersion	=	0x002b
                         0000002D   658 _g_MSXVER	=	0x002d
                         0000002E   659 _g_MSXMID	=	0x002e
                         00000034   660 _g_CHAR_16	=	0x0034
                         00000000   661 _g_SUBRID	=	0x0000
                         00000002   662 _g_STRSRC	=	0x0002
                         0000F30F   663 _g_KANJTABLE	=	0xf30f
                         0000F323   664 _g_DISKVE	=	0xf323
                         0000F325   665 _g_BREAKV	=	0xf325
                         0000F341   666 _g_RAMAD0	=	0xf341
                         0000F342   667 _g_RAMAD1	=	0xf342
                         0000F343   668 _g_RAMAD2	=	0xf343
                         0000F344   669 _g_RAMAD3	=	0xf344
                         0000F348   670 _g_MASTER	=	0xf348
                         0000F37D   671 _g_BDOS	=	0xf37d
    00000130                        672 _Alphabet:
    00000130 20 41 42 43 44 45 46   673 	.ascii " ABCDEFGHIJKLMNOPQRSTUVWXYZ0123456789.,!?'"
             47 48 49 4A 4B 4C 4D
             4E 4F 50 51 52 53 54
             55 56 57 58 59 5A 30
             31 32 33 34 35 36 37
             38 39 2E 2C 21 3F 27
    0000015A 22                     674 	.db 0x22
    0000015B 28 29 2D 2B 2F 3B 3A   675 	.ascii "()-+/;:="
             3D
    00000163 00                     676 	.db 0x00
    00000164 00                     677 	.db 0x00
    00000165 00                     678 	.db 0x00
    00000166 00                     679 	.db 0x00
    00000167 00                     680 	.db 0x00
    00000168 00                     681 	.db 0x00
    00000169 00                     682 	.db 0x00
    0000016A 00                     683 	.db 0x00
    0000016B 00                     684 	.db 0x00
    0000016C 00                     685 	.db 0x00
    0000016D 00                     686 	.db 0x00
    0000016E 00                     687 	.db 0x00
    0000016F 00                     688 	.db 0x00
                                    689 ;./main.c:53: u8 WeightedPick(u8* block) {
                                    690 ;	---------------------------------
                                    691 ; Function WeightedPick
                                    692 ; ---------------------------------
    00000170                        693 _WeightedPick::
    00000170 DD E5            [15]  694 	push	ix
    00000172 DD 21 00 00      [14]  695 	ld	ix,#0
    00000176 DD 39            [15]  696 	add	ix,sp
    00000178 F5               [11]  697 	push	af
    00000179 F5               [11]  698 	push	af
    0000017A DD 75 FD         [19]  699 	ld	-3 (ix), l
    0000017D DD 74 FE         [19]  700 	ld	-2 (ix), h
                                    701 ;./main.c:54: u16 total_weight = 0;
    00000180 11 00 00         [10]  702 	ld	de, #0x0000
                                    703 ;./main.c:55: for (u8 i = 4; i < 8; i++) total_weight += block[i];
    00000183 0E 04            [ 7]  704 	ld	c, #0x04
    00000185                        705 00108$:
    00000185 79               [ 4]  706 	ld	a, c
    00000186 D6 08            [ 7]  707 	sub	a, #0x08
    00000188 30 12            [12]  708 	jr	NC, 00101$
    0000018A DD 6E FD         [19]  709 	ld	l, -3 (ix)
    0000018D DD 66 FE         [19]  710 	ld	h, -2 (ix)
    00000190 06 00            [ 7]  711 	ld	b, #0x00
    00000192 09               [11]  712 	add	hl, bc
    00000193 6E               [ 7]  713 	ld	l, (hl)
                                    714 ;	spillPairReg hl
    00000194 26 00            [ 7]  715 	ld	h, #0x00
                                    716 ;	spillPairReg hl
                                    717 ;	spillPairReg hl
    00000196 19               [11]  718 	add	hl, de
    00000197 EB               [ 4]  719 	ex	de, hl
    00000198 0C               [ 4]  720 	inc	c
    00000199 C3r85r01         [10]  721 	jp	00108$
    0000019C                        722 00101$:
                                    723 ;./main.c:57: if (total_weight == 0) return 0; // Space fallback
    0000019C 7A               [ 4]  724 	ld	a, d
    0000019D B3               [ 4]  725 	or	a,e
    0000019E 28 5C            [12]  726 	jr	Z, 00113$
                                    727 ;./main.c:59: u16 roll = Math_GetRandom16() % total_weight;
    000001A0 D5               [11]  728 	push	de
    000001A1 CDr00r00         [17]  729 	call	_Math_GetRandom16
    000001A4 D1               [10]  730 	pop	de
    000001A5 CDr00r00         [17]  731 	call	__moduint
                                    732 ;./main.c:60: u16 acc = 0;
    000001A8 21 00 00         [10]  733 	ld	hl, #0x0000
                                    734 ;./main.c:62: for (u8 i = 0; i < 4; i++) {
    000001AB DD 36 FC 00      [19]  735 	ld	-4 (ix), #0x00
    000001AF DD 36 FF 00      [19]  736 	ld	-1 (ix), #0x00
    000001B3                        737 00111$:
    000001B3 DD 7E FF         [19]  738 	ld	a, -1 (ix)
    000001B6 D6 04            [ 7]  739 	sub	a, #0x04
    000001B8 30 3B            [12]  740 	jr	NC, 00106$
                                    741 ;./main.c:63: acc += block[i + 4];
    000001BA DD 4E FF         [19]  742 	ld	c, -1 (ix)
    000001BD 06 00            [ 7]  743 	ld	b, #0x00
    000001BF 03               [ 6]  744 	inc	bc
    000001C0 03               [ 6]  745 	inc	bc
    000001C1 03               [ 6]  746 	inc	bc
    000001C2 03               [ 6]  747 	inc	bc
    000001C3 79               [ 4]  748 	ld	a, c
    000001C4 DD 86 FD         [19]  749 	add	a, -3 (ix)
    000001C7 4F               [ 4]  750 	ld	c, a
    000001C8 78               [ 4]  751 	ld	a, b
    000001C9 DD 8E FE         [19]  752 	adc	a, -2 (ix)
    000001CC 47               [ 4]  753 	ld	b, a
    000001CD 0A               [ 7]  754 	ld	a, (bc)
    000001CE 4F               [ 4]  755 	ld	c, a
    000001CF 06 00            [ 7]  756 	ld	b, #0x00
    000001D1 09               [11]  757 	add	hl, bc
                                    758 ;./main.c:64: if (roll < acc) return block[i];
    000001D2 7B               [ 4]  759 	ld	a, e
    000001D3 95               [ 4]  760 	sub	a, l
    000001D4 7A               [ 4]  761 	ld	a, d
    000001D5 9C               [ 4]  762 	sbc	a, h
    000001D6 30 11            [12]  763 	jr	NC, 00112$
    000001D8 DD 7E FD         [19]  764 	ld	a, -3 (ix)
    000001DB DD 86 FC         [19]  765 	add	a, -4 (ix)
    000001DE 4F               [ 4]  766 	ld	c, a
    000001DF DD 7E FE         [19]  767 	ld	a, -2 (ix)
    000001E2 CE 00            [ 7]  768 	adc	a, #0x00
    000001E4 47               [ 4]  769 	ld	b, a
    000001E5 0A               [ 7]  770 	ld	a, (bc)
    000001E6 C3rFCr01         [10]  771 	jp	00113$
    000001E9                        772 00112$:
                                    773 ;./main.c:62: for (u8 i = 0; i < 4; i++) {
    000001E9 DD 34 FF         [23]  774 	inc	-1 (ix)
    000001EC DD 7E FF         [19]  775 	ld	a, -1 (ix)
    000001EF DD 77 FC         [19]  776 	ld	-4 (ix), a
    000001F2 C3rB3r01         [10]  777 	jp	00111$
    000001F5                        778 00106$:
                                    779 ;./main.c:66: return block[0];
    000001F5 DD 6E FD         [19]  780 	ld	l, -3 (ix)
    000001F8 DD 66 FE         [19]  781 	ld	h, -2 (ix)
    000001FB 7E               [ 7]  782 	ld	a, (hl)
    000001FC                        783 00113$:
                                    784 ;./main.c:67: }
    000001FC DD F9            [10]  785 	ld	sp, ix
    000001FE DD E1            [14]  786 	pop	ix
    00000200 C9               [10]  787 	ret
                                    788 ;./main.c:72: void UpdateKey(u8 char_code) {
                                    789 ;	---------------------------------
                                    790 ; Function UpdateKey
                                    791 ; ---------------------------------
    00000201                        792 _UpdateKey::
    00000201 4F               [ 4]  793 	ld	c, a
                                    794 ;./main.c:73: g_CurrentKey = (((u32)g_CurrentKey << 6) & (u32)KEY_MASK) | (u32)(char_code & 0x3F);
    00000202 2Ar00r00         [16]  795 	ld	hl, (_g_CurrentKey)
    00000205 ED 5Br02r00      [20]  796 	ld	de, (_g_CurrentKey + 2)
    00000209 06 06            [ 7]  797 	ld	b, #0x06
    0000020B                        798 00103$:
    0000020B 29               [11]  799 	add	hl, hl
    0000020C CB 13            [ 8]  800 	rl	e
    0000020E CB 12            [ 8]  801 	rl	d
    00000210 10 F9            [13]  802 	djnz	00103$
    00000212 16 00            [ 7]  803 	ld	d, #0x00
    00000214 79               [ 4]  804 	ld	a, c
    00000215 E6 3F            [ 7]  805 	and	a, #0x3f
    00000217 4F               [ 4]  806 	ld	c, a
    00000218 06 00            [ 7]  807 	ld	b, #0x00
    0000021A 79               [ 4]  808 	ld	a, c
    0000021B F5               [11]  809 	push	af
    0000021C 78               [ 4]  810 	ld	a, b
    0000021D FD E5            [15]  811 	push	iy
    0000021F E3               [19]  812 	ex	(sp), hl
    00000220 67               [ 4]  813 	ld	h, a
                                    814 ;	spillPairReg hl
                                    815 ;	spillPairReg hl
    00000221 E3               [19]  816 	ex	(sp), hl
    00000222 FD E1            [14]  817 	pop	iy
    00000224 07               [ 4]  818 	rlca
    00000225 9F               [ 4]  819 	sbc	a, a
    00000226 4F               [ 4]  820 	ld	c, a
    00000227 47               [ 4]  821 	ld	b, a
    00000228 F1               [10]  822 	pop	af
    00000229 B5               [ 4]  823 	or	a, l
    0000022A 32r00r00         [13]  824 	ld	(_g_CurrentKey+0), a
    0000022D FD E5            [15]  825 	push	iy
    0000022F E3               [19]  826 	ex	(sp), hl
    00000230 7C               [ 4]  827 	ld	a, h
    00000231 E3               [19]  828 	ex	(sp), hl
    00000232 FD E1            [14]  829 	pop	iy
    00000234 B4               [ 4]  830 	or	a, h
    00000235 32r01r00         [13]  831 	ld	(_g_CurrentKey+1), a
    00000238 79               [ 4]  832 	ld	a, c
    00000239 B3               [ 4]  833 	or	a, e
    0000023A 32r02r00         [13]  834 	ld	(_g_CurrentKey+2), a
    0000023D 78               [ 4]  835 	ld	a, b
    0000023E B2               [ 4]  836 	or	a, d
    0000023F 32r03r00         [13]  837 	ld	(_g_CurrentKey+3), a
                                    838 ;./main.c:74: }
    00000242 C9               [10]  839 	ret
                                    840 ;./main.c:78: void main() {
                                    841 ;	---------------------------------
                                    842 ; Function main
                                    843 ; ---------------------------------
    00000243                        844 _main::
    00000243 DD E5            [15]  845 	push	ix
    00000245 DD 21 00 00      [14]  846 	ld	ix,#0
    00000249 DD 39            [15]  847 	add	ix,sp
    0000024B 21 F9 FF         [10]  848 	ld	hl, #-7
    0000024E 39               [11]  849 	add	hl, sp
    0000024F F9               [ 6]  850 	ld	sp, hl
                                    851 ;./main.c:80: VDP_SetMode(VDP_MODE_TEXT2); // 80 column mode
    00000250 3E 04            [ 7]  852 	ld	a, #0x04
    00000252 CDr00r00         [17]  853 	call	_VDP_SetMode
                                    854 ;./main.c:81: VDP_ClearVRAM();
    00000255 CDr00r00         [17]  855 	call	_VDP_ClearVRAM
                                    856 ;./main.c:82: Print_SetColor(15, 1); // White text (15) on dark blue background (1)
    00000258 2E 01            [ 7]  857 	ld	l, #0x01
                                    858 ;	spillPairReg hl
                                    859 ;	spillPairReg hl
    0000025A 3E 0F            [ 7]  860 	ld	a, #0x0f
    0000025C CDr00r00         [17]  861 	call	_Print_SetColor
                                    862 ;./main.c:84: Print_DrawText("MSXai V1.0\nINITIALIZING BRAIN...\n");
    0000025F 21r43r03         [10]  863 	ld	hl, #___str_1
    00000262 CDr00r00         [17]  864 	call	_Print_DrawText
                                    865 ;./main.c:87: Pletter_UnpackToVRAM(brain_index_comp, ADDR_INDEX);
    00000265 11 00 10         [10]  866 	ld	de, #0x1000
    00000268 21r00r00         [10]  867 	ld	hl, #_brain_index_comp
    0000026B CDr00r00         [17]  868 	call	_Pletter_UnpackToVRAM
                                    869 ;./main.c:88: Pletter_UnpackToVRAM(brain_data_comp, ADDR_DATA);
    0000026E 11 00 50         [10]  870 	ld	de, #0x5000
    00000271 21r00r00         [10]  871 	ld	hl, #_brain_data_comp
    00000274 CDr00r00         [17]  872 	call	_Pletter_UnpackToVRAM
                                    873 ;./main.c:90: Print_DrawText("READY.\n\nPROMPT: ");
    00000277 21r65r03         [10]  874 	ld	hl, #___str_2
    0000027A CDr00r00         [17]  875 	call	_Print_DrawText
                                    876 ;./main.c:92: while(1) {
    0000027D                        877 00115$:
                                    878 ;./main.c:95: u8 key = Keyboard_ReadNextChar();
    0000027D CDr00r00         [17]  879 	call	_Keyboard_ReadNextChar
                                    880 ;./main.c:98: if (key != 0 && key != 255) {
    00000280 7B               [ 4]  881 	ld	a, e
    00000281 B7               [ 4]  882 	or	a, a
    00000282 28 40            [12]  883 	jr	Z, 00108$
    00000284 7B               [ 4]  884 	ld	a, e
    00000285 3C               [ 4]  885 	inc	a
    00000286 28 3C            [12]  886 	jr	Z, 00108$
                                    887 ;./main.c:100: if(key >= 'a' && key <= 'z') key -= 32;
    00000288 7B               [ 4]  888 	ld	a, e
    00000289 D6 61            [ 7]  889 	sub	a, #0x61
    0000028B 38 09            [12]  890 	jr	C, 00102$
    0000028D 3E 7A            [ 7]  891 	ld	a, #0x7a
    0000028F 93               [ 4]  892 	sub	a, e
    00000290 38 04            [12]  893 	jr	C, 00102$
    00000292 7B               [ 4]  894 	ld	a, e
    00000293 C6 E0            [ 7]  895 	add	a, #0xe0
    00000295 5F               [ 4]  896 	ld	e, a
    00000296                        897 00102$:
                                    898 ;./main.c:103: for (u8 i = 0; i < 64; i++) {
    00000296 16 00            [ 7]  899 	ld	d, #0x00
    00000298 4A               [ 4]  900 	ld	c, d
    00000299                        901 00119$:
    00000299 79               [ 4]  902 	ld	a, c
    0000029A D6 40            [ 7]  903 	sub	a, #0x40
    0000029C 30 26            [12]  904 	jr	NC, 00108$
                                    905 ;./main.c:104: if (Alphabet[i] == key) {
    0000029E 21r30r01         [10]  906 	ld	hl, #_Alphabet
    000002A1 06 00            [ 7]  907 	ld	b, #0x00
    000002A3 09               [11]  908 	add	hl, bc
    000002A4 7E               [ 7]  909 	ld	a, (hl)
    000002A5 93               [ 4]  910 	sub	a, e
    000002A6 20 17            [12]  911 	jr	NZ, 00120$
                                    912 ;./main.c:106: c8 out_user[2] = { key, 0 };
    000002A8 DD 73 FB         [19]  913 	ld	-5 (ix), e
    000002AB DD 36 FC 00      [19]  914 	ld	-4 (ix), #0x00
                                    915 ;./main.c:107: Print_DrawText(out_user);
    000002AF D5               [11]  916 	push	de
    000002B0 21 04 00         [10]  917 	ld	hl, #4
    000002B3 39               [11]  918 	add	hl, sp
    000002B4 CDr00r00         [17]  919 	call	_Print_DrawText
    000002B7 D1               [10]  920 	pop	de
                                    921 ;./main.c:110: UpdateKey(i);
    000002B8 7A               [ 4]  922 	ld	a, d
    000002B9 CDr01r02         [17]  923 	call	_UpdateKey
                                    924 ;./main.c:111: break; 
    000002BC C3rC4r02         [10]  925 	jp	00108$
    000002BF                        926 00120$:
                                    927 ;./main.c:103: for (u8 i = 0; i < 64; i++) {
    000002BF 0C               [ 4]  928 	inc	c
    000002C0 51               [ 4]  929 	ld	d, c
    000002C1 C3r99r02         [10]  930 	jp	00119$
    000002C4                        931 00108$:
                                    932 ;./main.c:117: u16 state_idx = FindStateIndex(g_CurrentKey);
    000002C4 ED 5Br00r00      [20]  933 	ld	de, (_g_CurrentKey)
    000002C8 2Ar02r00         [16]  934 	ld	hl, (_g_CurrentKey + 2)
    000002CB CDr00r00         [17]  935 	call	_FindStateIndex
                                    936 ;./main.c:119: if (state_idx != 0xFFFF) {
    000002CE 33               [ 6]  937 	inc	sp
    000002CF 33               [ 6]  938 	inc	sp
    000002D0 D5               [11]  939 	push	de
    000002D1 DD 7E F9         [19]  940 	ld	a, -7 (ix)
    000002D4 DD A6 FA         [19]  941 	and	a, -6 (ix)
    000002D7 3C               [ 4]  942 	inc	a
    000002D8 28 65            [12]  943 	jr	Z, 00112$
                                    944 ;./main.c:121: VDP_ReadVRAM((u16)ADDR_DATA + (state_idx * 8), 0, block, 8);
    000002DA E1               [10]  945 	pop	hl
    000002DB E5               [11]  946 	push	hl
    000002DC 29               [11]  947 	add	hl, hl
    000002DD 29               [11]  948 	add	hl, hl
    000002DE 29               [11]  949 	add	hl, hl
    000002DF 01 00 50         [10]  950 	ld	bc, #0x5000
    000002E2 09               [11]  951 	add	hl, bc
    000002E3 11 08 00         [10]  952 	ld	de, #0x0008
    000002E6 D5               [11]  953 	push	de
    000002E7 11r00r00         [10]  954 	ld	de, #_main_block_196609_914
    000002EA D5               [11]  955 	push	de
    000002EB AF               [ 4]  956 	xor	a, a
    000002EC F5               [11]  957 	push	af
    000002ED 33               [ 6]  958 	inc	sp
    000002EE CDr00r00         [17]  959 	call	_VDP_ReadVRAM_128K
                                    960 ;./main.c:123: u8 next_char_code = WeightedPick(block);
    000002F1 21r00r00         [10]  961 	ld	hl, #_main_block_196609_914
    000002F4 CDr70r01         [17]  962 	call	_WeightedPick
    000002F7 DD 77 FF         [19]  963 	ld	-1 (ix), a
                                    964 ;./main.c:126: for(volatile u16 d=0; d<2000; d++); 
    000002FA AF               [ 4]  965 	xor	a, a
    000002FB DD 77 FD         [19]  966 	ld	-3 (ix), a
    000002FE DD 77 FE         [19]  967 	ld	-2 (ix), a
    00000301                        968 00122$:
    00000301 DD 7E FD         [19]  969 	ld	a, -3 (ix)
    00000304 DD 46 FE         [19]  970 	ld	b, -2 (ix)
    00000307 D6 D0            [ 7]  971 	sub	a, #0xd0
    00000309 78               [ 4]  972 	ld	a, b
    0000030A DE 07            [ 7]  973 	sbc	a, #0x07
    0000030C 30 10            [12]  974 	jr	NC, 00110$
    0000030E DD 4E FD         [19]  975 	ld	c, -3 (ix)
    00000311 DD 46 FE         [19]  976 	ld	b, -2 (ix)
    00000314 03               [ 6]  977 	inc	bc
    00000315 DD 71 FD         [19]  978 	ld	-3 (ix), c
    00000318 DD 70 FE         [19]  979 	ld	-2 (ix), b
    0000031B C3r01r03         [10]  980 	jp	00122$
    0000031E                        981 00110$:
                                    982 ;./main.c:129: c8 out_char[2] = { Alphabet[next_char_code], 0 };
    0000031E 01r30r01         [10]  983 	ld	bc, #_Alphabet+0
    00000321 DD 6E FF         [19]  984 	ld	l, -1 (ix)
    00000324 26 00            [ 7]  985 	ld	h, #0x00
    00000326 09               [11]  986 	add	hl, bc
    00000327 7E               [ 7]  987 	ld	a, (hl)
    00000328 DD 77 FD         [19]  988 	ld	-3 (ix), a
    0000032B DD 36 FE 00      [19]  989 	ld	-2 (ix), #0x00
                                    990 ;./main.c:130: Print_DrawText(out_char);
    0000032F 21 04 00         [10]  991 	ld	hl, #4
    00000332 39               [11]  992 	add	hl, sp
    00000333 CDr00r00         [17]  993 	call	_Print_DrawText
                                    994 ;./main.c:131: UpdateKey(next_char_code);
    00000336 DD 7E FF         [19]  995 	ld	a, -1 (ix)
    00000339 CDr01r02         [17]  996 	call	_UpdateKey
    0000033C C3r7Dr02         [10]  997 	jp	00115$
    0000033F                        998 00112$:
                                    999 ;C:/MSX/MSXgl-1.4.1/engine/src/system.h:145: inline void Halt() { __asm__("halt"); }
    0000033F 76               [ 4] 1000 	halt
                                   1001 ;./main.c:134: Halt();
                                   1002 ;./main.c:137: }
    00000340 C3r7Dr02         [10] 1003 	jp	00115$
    00000343                       1004 ___str_1:
    00000343 4D 53 58 61 69 20 56  1005 	.ascii "MSXai V1.0"
             31 2E 30
    0000034D 0A                    1006 	.db 0x0a
    0000034E 49 4E 49 54 49 41 4C  1007 	.ascii "INITIALIZING BRAIN..."
             49 5A 49 4E 47 20 42
             52 41 49 4E 2E 2E 2E
    00000363 0A                    1008 	.db 0x0a
    00000364 00                    1009 	.db 0x00
    00000365                       1010 ___str_2:
    00000365 52 45 41 44 59 2E     1011 	.ascii "READY."
    0000036B 0A                    1012 	.db 0x0a
    0000036C 0A                    1013 	.db 0x0a
    0000036D 50 52 4F 4D 50 54 3A  1014 	.ascii "PROMPT: "
             20
    00000375 00                    1015 	.db 0x00
                                   1016 	.area _CODE
                                   1017 	.area _INITIALIZER
    00000000                       1018 __xinit__g_CurrentKey:
    00000000 00 00 00 00           1019 	.byte #0x00, #0x00, #0x00, #0x00	; 0
                                   1020 	.area _CABS (ABS)
