ASxxxx Linker V03.00 + NoICE + sdld,  page 1.
Hexadecimal  [32-Bits]

Area                                    Addr        Size        Decimal Bytes (Attributes)
--------------------------------        ----        ----        ------- ----- ------------
.  .ABS.                            00000000    00000000 =           0. bytes (ABS,CON)

      Value  Global                              Global Defined In Module
      -----  --------------------------------   ------------------------
     00000000  .__.ABS.                           
     00000000  _Keyboard_ReadNextChar          
     00000000  _g_SUBRID                          main
     00000000  l__BSEG                         
     00000000  l__BSS                          
     00000000  l__CABS                         
     00000000  l__DABS                         
     00000000  l__GSFINAL                      
     00000000  l__GSINIT                       
     00000000  l__HEADER                       
     00000000  l__HEADER0                      
     00000000  l__HEAP                         
     00000000  l__RODATA                       
     00000000  s__CABS                         
     00000000  s__DABS                         
     00000000  s__HEADER                       
     00000000  s__HEADER0                      
     00000002  _g_STRSRC                          main
     00000004  _g_CGTABL                          print
     00000006  _g_VDP_DR                          print
     00000007  _g_VDP_DW                          print
     00000011  l__INITIALIZED                  
     00000011  l__INITIALIZER                  
     0000002B  _g_BASRVN                          print
     0000002B  _g_ROMVersion                      print
     0000002D  _g_MSXVER                          print
     0000002E  _g_MSXMID                          print
     00000034  _g_CHAR_16                         print
     0000008B  l__DATA                         
     00000221  l__HOME                         
     00003633  l__CODE                         
     00004000  s__CODE                         
     00007633  s__HOME                         
     00007854  s__INITIALIZER                  
     00007854  s__RODATA                       
     00007865  s__GSFINAL                      
     00007865  s__GSINIT                       
     0000C000  s__DATA                         
     0000C08B  s__INITIALIZED                  
     0000C09C  s__BSEG                         
     0000C09C  s__BSS                          
     0000C09C  s__HEAP                         
     0000F30F  _g_KANJTABLE                       main
     0000F323  _g_DISKVE                          main
     0000F325  _g_BREAKV                          main
     0000F341  _g_RAMAD0                          main
     0000F342  _g_RAMAD1                          main
     0000F343  _g_RAMAD2                          main
     0000F344  _g_RAMAD3                          main
     0000F348  _g_MASTER                          main
ASxxxx Linker V03.00 + NoICE + sdld,  page 2.
Hexadecimal  [32-Bits]

Area                                    Addr        Size        Decimal Bytes (Attributes)
--------------------------------        ----        ----        ------- ----- ------------
.  .ABS.                            00000000    00000000 =           0. bytes (ABS,CON)

      Value  Global                              Global Defined In Module
      -----  --------------------------------   ------------------------
     0000F37D  _g_BDOS                            main
     0000F380  _g_RDPRIM                          pletter
     0000F385  _g_WRPRIM                          pletter
     0000F38C  _g_CLPRIM                          pletter
     0000F39A  _g_USRTAB                          pletter
     0000F3AE  _g_LINL40                          pletter
     0000F3AF  _g_LINL32                          pletter
     0000F3B0  _g_LINLEN                          pletter
     0000F3B1  _g_CRTCNT                          pletter
     0000F3B2  _g_CLMLST                          pletter
     0000F3B3  _g_TXTNAM                          pletter
     0000F3B5  _g_TXTCOL                          pletter
     0000F3B7  _g_TXTCGP                          pletter
     0000F3B9  _g_TXTATR                          pletter
     0000F3BB  _g_TXTPAT                          pletter
     0000F3BD  _g_T32NAM                          pletter
     0000F3BF  _g_T32COL                          pletter
     0000F3C1  _g_T32CGP                          pletter
     0000F3C3  _g_T32ATR                          pletter
     0000F3C5  _g_T32PAT                          pletter
     0000F3C7  _g_GRPNAM                          pletter
     0000F3C9  _g_GRPCOL                          pletter
     0000F3CB  _g_GRPCGP                          pletter
     0000F3CD  _g_GRPATR                          pletter
     0000F3CF  _g_GRPPAT                          pletter
     0000F3D1  _g_MLTNAM                          pletter
     0000F3D3  _g_MLTCOL                          pletter
     0000F3D5  _g_MLTCGP                          pletter
     0000F3D7  _g_MLTATR                          pletter
     0000F3D9  _g_MLTPAT                          pletter
     0000F3DB  _g_CLIKSW                          pletter
     0000F3DC  _g_CSRY                            pletter
     0000F3DD  _g_CSRX                            pletter
     0000F3DE  _g_CNSDFG                          pletter
     0000F3DF  _g_RG0SAV                          pletter
     0000F3E0  _g_RG1SAV                          pletter
     0000F3E1  _g_RG2SAV                          pletter
     0000F3E2  _g_RG3SAV                          pletter
     0000F3E3  _g_RG4SAV                          pletter
     0000F3E4  _g_RG5SAV                          pletter
     0000F3E5  _g_RG6SAV                          pletter
     0000F3E6  _g_RG7SAV                          pletter
     0000F3E7  _g_STATFL                          pletter
     0000F3E8  _g_TRGFLG                          pletter
     0000F3E9  _g_FORCLR                          pletter
     0000F3EA  _g_BAKCLR                          pletter
     0000F3EB  _g_BDRCLR                          pletter
     0000F3EC  _g_MAXUPD                          pletter
     0000F3EF  _g_MINUPD                          pletter
     0000F3F2  _g_ATRBYT                          pletter
     0000F3F3  _g_QUEUES                          pletter
ASxxxx Linker V03.00 + NoICE + sdld,  page 3.
Hexadecimal  [32-Bits]

Area                                    Addr        Size        Decimal Bytes (Attributes)
--------------------------------        ----        ----        ------- ----- ------------
.  .ABS.                            00000000    00000000 =           0. bytes (ABS,CON)

      Value  Global                              Global Defined In Module
      -----  --------------------------------   ------------------------
     0000F3F5  _g_FRCNEW                          pletter
     0000F3F6  _g_SCNCNT                          pletter
     0000F3F7  _g_REPCNT                          pletter
     0000F3F8  _g_PUTPNT                          pletter
     0000F3FA  _g_GETPNT                          pletter
     0000F3FC  _g_CS120                           pletter
     0000F401  _g_CS240                           pletter
     0000F406  _g_LOW                             pletter
     0000F408  _g_HIGH                            pletter
     0000F40A  _g_HEADER                          pletter
     0000F40B  _g_ASPCT1                          pletter
     0000F40D  _g_ASPCT2                          pletter
     0000F87F  _g_FNKSTR                          pletter
     0000F92A  _g_CLOC                            pletter
     0000F92C  _g_CMASK                           pletter
     0000F959  _g_QUETAB                          pletter
     0000F971  _g_QUEBAK                          pletter
     0000F975  _g_VOICAQ                          pletter
     0000F9F5  _g_VOICBQ                          pletter
     0000FA75  _g_VOICCQ                          pletter
     0000FAF5  _g_DPPAGE                          pletter
     0000FAF5  _g_RS2IQ                           pletter
     0000FAF6  _g_ACPAGE                          pletter
     0000FAF7  _g_AVCSAV                          pletter
     0000FAF8  _g_EXBRSA                          pletter
     0000FAF9  _g_CHRCNT                          pletter
     0000FAFA  _g_ROMA                            pletter
     0000FAFC  _g_MODE                            pletter
     0000FAFD  _g_NORUSE                          pletter
     0000FAFE  _g_XSAVE                           pletter
     0000FB00  _g_YSAVE                           pletter
     0000FB02  _g_LOGOPR                          pletter
     0000FB03  _g_RSTMP                           pletter
     0000FB03  _g_TOCNT                           pletter
     0000FB04  _g_RSFCB                           pletter
     0000FB06  _g_RSIQLN                          pletter
     0000FB07  _g_MEXBIh                          pletter
     0000FB0C  _g_OLDINT                          pletter
     0000FB0C  _g_OLDSTT                          pletter
     0000FB16  _g_DEVNUM                          pletter
     0000FB17  _g_DATCNT                          pletter
     0000FB1A  _g_ERRORS                          pletter
     0000FB1B  _g_FLAGS                           pletter
     0000FB1C  _g_ESTBLS                          pletter
     0000FB1D  _g_COMMSK                          pletter
     0000FB1E  _g_LSTCOM                          pletter
     0000FB1F  _g_LSTMOD                          pletter
     0000FB35  _g_PRSCNT                          pletter
     0000FB36  _g_SAVSP                           pletter
     0000FB38  _g_VOICEN                          pletter
     0000FB39  _g_SAVVOL                          pletter
ASxxxx Linker V03.00 + NoICE + sdld,  page 4.
Hexadecimal  [32-Bits]

Area                                    Addr        Size        Decimal Bytes (Attributes)
--------------------------------        ----        ----        ------- ----- ------------
.  .ABS.                            00000000    00000000 =           0. bytes (ABS,CON)

      Value  Global                              Global Defined In Module
      -----  --------------------------------   ------------------------
     0000FB3B  _g_MCLLEN                          pletter
     0000FB3C  _g_MCLPTR                          pletter
     0000FB3E  _g_QUEUEN                          pletter
     0000FB3F  _g_MUSICF                          pletter
     0000FB40  _g_PLYCNT                          pletter
     0000FB41  _g_VCBA                            pletter
     0000FB66  _g_VCBB                            pletter
     0000FB8B  _g_VCBC                            pletter
     0000FBB0  _g_ENSTOP                          pletter
     0000FBB1  _g_BASROM                          pletter
     0000FBB2  _g_LINTTB                          pletter
     0000FBCA  _g_FSTPOS                          pletter
     0000FBCC  _g_CODSAV                          pletter
     0000FBCD  _g_FNKSWI                          pletter
     0000FBCE  _g_FNKFLG                          pletter
     0000FBD8  _g_ONGSBF                          pletter
     0000FBD9  _g_CLIKFL                          pletter
     0000FBDA  _g_OLDKEY                          pletter
     0000FBE5  _g_NEWKEY                          pletter
     0000FBF0  _g_KEYBUF                          pletter
     0000FC18  _g_LINWRK                          pletter
     0000FC40  _g_PATWRK                          pletter
     0000FC48  _g_BOTTOM                          pletter
     0000FC4A  _g_HIMEM                           pletter
     0000FC4C  _g_TRPTBL                          pletter
     0000FC9A  _g_RTYCNT                          pletter
     0000FC9B  _g_INTFLG                          pletter
     0000FC9C  _g_PADY                            pletter
     0000FC9D  _g_PADX                            pletter
     0000FC9E  _g_JIFFY                           pletter
     0000FCA0  _g_INTVAL                          pletter
     0000FCA2  _g_INTCNT                          pletter
     0000FCA4  _g_LOWLIM                          pletter
     0000FCA5  _g_WINWID                          pletter
     0000FCA6  _g_GRPHED                          pletter
     0000FCA7  _g_ESCCNT                          pletter
     0000FCA8  _g_INSFLG                          pletter
     0000FCA9  _g_CSRSW                           pletter
     0000FCAA  _g_CSTYLE                          pletter
     0000FCAB  _g_CAPST                           pletter
     0000FCAC  _g_KANAST                          pletter
     0000FCAD  _g_KANAMD                          pletter
     0000FCAE  _g_FLBMEM                          pletter
     0000FCAF  _g_SCRMOD                          pletter
     0000FCB0  _g_OLDSCR                          pletter
     0000FCB1  _g_CASPRV                          pletter
     0000FCB2  _g_BRDATR                          pletter
     0000FCB3  _g_GXPOS                           pletter
     0000FCB5  _g_GYPOS                           pletter
     0000FCB7  _g_GRPACX                          pletter
     0000FCB9  _g_GRPACY                          pletter
ASxxxx Linker V03.00 + NoICE + sdld,  page 5.
Hexadecimal  [32-Bits]

Area                                    Addr        Size        Decimal Bytes (Attributes)
--------------------------------        ----        ----        ------- ----- ------------
.  .ABS.                            00000000    00000000 =           0. bytes (ABS,CON)

      Value  Global                              Global Defined In Module
      -----  --------------------------------   ------------------------
     0000FCBB  _g_DRWFLG                          pletter
     0000FCBC  _g_DRWSCL                          pletter
     0000FCBD  _g_DRWANG                          pletter
     0000FCC1  _g_EXPTBL                          pletter
     0000FCC1  _g_MNROM                           pletter
     0000FCC5  _g_SLTTBL                          pletter
     0000FCC9  _g_SLTATR                          pletter
     0000FD09  _g_SLTWRK                          pletter
     0000FD89  _g_PROCNM                          pletter
     0000FFE7  _g_RG08SAV                         pletter
     0000FFE8  _g_RG09SAV                         pletter
     0000FFE9  _g_RG10SAV                         pletter
     0000FFEA  _g_RG11SAV                         pletter
     0000FFEB  _g_RG12SAV                         pletter
     0000FFEC  _g_RG13SAV                         pletter
     0000FFED  _g_RG14SAV                         pletter
     0000FFEE  _g_RG15SAV                         pletter
     0000FFEF  _g_RG16SAV                         pletter
     0000FFF0  _g_RG17SAV                         pletter
     0000FFF1  _g_RG18SAV                         pletter
     0000FFF2  _g_RG19SAV                         pletter
     0000FFF3  _g_RG20SAV                         pletter
     0000FFF4  _g_RG21SAV                         pletter
     0000FFF5  _g_RG22SAV                         pletter
     0000FFF6  _g_RG23SAV                         pletter
     0000FFF7  _g_MINROM                          pletter
     0000FFF8  _g_SVFFF8                          pletter
     0000FFFA  _g_RG25SAV                         pletter
     0000FFFB  _g_RG26SAV                         pletter
     0000FFFC  _g_RG27SAV                         pletter
     0000FFFD  _g_SVFFFD                          pletter
     0000FFFF  _g_SLTSL                           pletter

ASxxxx Linker V03.00 + NoICE + sdld,  page 6.
Hexadecimal  [32-Bits]

Area                                    Addr        Size        Decimal Bytes (Attributes)
--------------------------------        ----        ----        ------- ----- ------------
_CODE                               00004000    00003633 =       13875. bytes (REL,CON)

      Value  Global                              Global Defined In Module
      -----  --------------------------------   ------------------------
     00004000  _g_HeaderAddr                      crt0
     00004000  crt0_rom_header                    crt0
     0000401F  crt0_p1_to_p2                      crt0
     00004052  _FindStateIndex                    main
     00004182  _Alphabet                          main
     000041C2  _WeightedPick                      main
     00004253  _UpdateKey                         main
     00004295  _main                              main
     000043C8  _VDP_SetModeFlag                   vdp
     000043F1  _VDP_SetModeText1                  vdp
     00004408  _VDP_SetModeMultiColor             vdp
     00004431  _VDP_SetModeGraphic1               vdp
     00004462  _VDP_SetModeGraphic2               vdp
     00004494  _VDP_ClearVRAM                     vdp
     000044C3  _VDP_WriteVRAM_16K                 vdp
     000044FA  _VDP_FillVRAM_16K                  vdp
     0000451F  _VDP_ReadVRAM_16K                  vdp
     00004555  _VDP_Peek_16K                      vdp
     0000456A  _VDP_Poke_16K                      vdp
     00004582  _VDP_SetModeText2                  vdp
     000045A2  _VDP_SetModeGraphic3               vdp
     000045D4  _VDP_SetModeGraphic4               vdp
     000045F4  _VDP_SetModeGraphic5               vdp
     00004614  _VDP_SetModeGraphic6               vdp
     00004634  _VDP_SetModeGraphic7               vdp
     00004654  _VDP_ReadStatus                    vdp
     00004668  _VDP_SetAdjustOffset               vdp
     00004672  _VDP_SetPalette                    vdp
     00004683  _VDP_SetPaletteEntry               vdp
     00004692  _VDP_WriteVRAM_128K                vdp
     000046D5  _VDP_FillVRAM_128K                 vdp
     00004710  _VDP_ReadVRAM_128K                 vdp
     00004758  _VDP_Poke_128K                     vdp
     00004783  _VDP_Peek_128K                     vdp
     000047A6  _VDP_CommandWait                   vdp
     000047BF  _VDP_CommandSetupR32               vdp
     000047F2  _VDP_CommandSetupR36               vdp
     0000481D  _VDP_CommandWriteLoop              vdp
     00004845  _VDP_Initialize                    vdp
     00004861  _VDP_SetMode                       vdp
     0000495D  _VDP_GetVersion                    vdp
     000049AC  _VDP_RegWrite                      vdp
     000049B8  _VDP_RegWriteBak                   vdp
     000049CB  _VDP_RegWriteBakMask               vdp
     000049EA  _VDP_ReadDefaultStatus             vdp
     000049ED  _VDP_SetPage                       vdp
     000049FB  _VDP_SetLayoutTable                vdp
     00004A5E  _VDP_SetColorTable                 vdp
     00004AF7  _VDP_SetPatternTable               vdp
     00004B57  _VDP_SetSpriteAttributeTable       vdp
ASxxxx Linker V03.00 + NoICE + sdld,  page 7.
Hexadecimal  [32-Bits]

Area                                    Addr        Size        Decimal Bytes (Attributes)
--------------------------------        ----        ----        ------- ----- ------------
_CODE                               00004000    00003633 =       13875. bytes (REL,CON)

      Value  Global                              Global Defined In Module
      -----  --------------------------------   ------------------------
     00004BFA  _VDP_SetSpritePatternTable         vdp
     00004C19  _VDP_LoadSpritePattern             vdp
     00004C49  _VDP_SetSpriteSM1                  vdp
     00004C8C  _VDP_SetSprite                     vdp
     00004CC7  _VDP_SetSpriteExMultiColor         vdp
     00004D2B  _VDP_SetSpriteExUniColor           vdp
     00004D8C  _VDP_SetSpritePosition             vdp
     00004DC0  _VDP_SetSpritePositionX            vdp
     00004DD8  _VDP_SetSpritePositionY            vdp
     00004DEF  _VDP_SetSpritePattern              vdp
     00004E08  _VDP_SetSpriteColorSM1             vdp
     00004E22  _VDP_SetSpriteUniColor             vdp
     00004E3F  _VDP_SetSpriteMultiColor           vdp
     00004E5D  _VDP_SetSpriteData                 vdp
     00004E79  _VDP_DisableSpritesFrom            vdp
     00004E8A  _VDP_SetBlinkTile                  vdp
     00004EED  _g_VDPBitValue                     vdp
     00004EF5  _VDP_LoadPattern_GM2               vdp
     00004F79  _VDP_LoadColor_GM2                 vdp
     00004FFD  _VDP_WriteLayout_GM2               vdp
     00005068  _VDP_FillLayout_GM2                vdp
     000050BE  _Math_Div10                        math
     000050CA  _Math_Div10_16b                    math
     000050DE  _Math_Mod10                        math
     000050F2  _Math_Mod10_16b                    math
     0000510B  _Math_Flip                         math
     0000511D  _Math_Flip_16b                     math
     00005128  _Math_Negative16                   math
     0000512F  _Math_Swap                         math
     00005132  _Math_SignedDiv64                  math
     00005132  _Math_SignedDiv_ASM                math
     00005134  _Math_SignedDiv32                  math
     00005136  _Math_SignedDiv16                  math
     00005138  _Math_SignedDiv8                   math
     0000513A  _Math_SignedDiv4                   math
     0000513C  _Math_SignedDiv2                   math
     00005141  _Math_SetRandomSeed8               math
     0000514E  _Math_GetRandom8                   math
     0000515E  _Math_SetRandomSeed16              math
     0000516D  _Math_GetRandom16                  math
     00005182  _Print_SplitColor                  print
     000051B4  _g_HexChar                         print
     000051C4  _Print_MergeColor                  print
     00005224  _Print_Initialize                  print
     00005318  _Print_SetMode                     print
     000053A2  _Print_SetFont                     print
     0000547C  _Print_InitColorBuffer             print
     0000563D  _Print_SetColor                    print
     00005738  _Print_SetColorShade               print
     000057F0  _Print_ValidateChar                print
     0000583C  _Print_ValidatePattern             print
ASxxxx Linker V03.00 + NoICE + sdld,  page 8.
Hexadecimal  [32-Bits]

Area                                    Addr        Size        Decimal Bytes (Attributes)
--------------------------------        ----        ----        ------- ----- ------------
_CODE                               00004000    00003633 =       13875. bytes (REL,CON)

      Value  Global                              Global Defined In Module
      -----  --------------------------------   ------------------------
     0000590B  _Print_SetBitmapFont               print
     00005915  _DrawChar_8B                       print
     00005A3D  _DrawChar_4B                       print
     00005B35  _DrawChar_2B                       print
     00005C0B  _DrawChar_Trans                    print
     00005F03  _Print_SetVRAMFont                 print
     000060A5  _DrawChar_VRAM256                  print
     000061E1  _DrawChar_VRAM512                  print
     0000631D  _CopyNo8HeightFontData             print
     0000637E  _Print_SetTextFont                 print
     000066AA  _DrawChar_Layout                   print
     000066F0  _Print_SetSpriteFont               print
     0000684F  _DrawChar_Sprite                   print
     00006887  _Print_SetShadow                   print
     000068C1  _Print_EnableShadow                print
     000068E4  _Print_SetOutline                  print
     000068F1  _Print_EnableOutline               print
     00006914  _Print_Clear                       print
     0000696A  _Print_Backspace                   print
     00006A5E  _Print_DrawChar                    print
     00006A9E  _Print_DrawCharX                   print
     00006AB0  _Print_DrawText                    print
     00006B40  _Print_DrawBin8                    print
     00006B63  _Print_DrawHex8                    print
     00006B89  _Print_DrawHex16                   print
     00006B94  _Print_DrawHex32                   print
     00006B9F  _Print_DrawInt                     print
     00006C6F  _Print_DrawFormat                  print
     0000732D  _Print_DrawLineH                   print
     0000734E  _Print_DrawLineV                   print
     0000737E  _Print_DrawBox                     print
     0000743E  _Pletter_UnpackToRAM               pletter
     000074F0  _Pletter_UnpackToVRAM              pletter
     000075DB  __moduchar                         
     000075E2  __moduint                          
     000075E7  __divuchar                         
     000075E9  __divu8                            
     000075EC  __divu16                           
     000075EC  __divuint                          
     0000761B  __mulint                           
     0000761D  __mul16                            
     00007632  ___sdcc_call_hl                    

ASxxxx Linker V03.00 + NoICE + sdld,  page 9.
Hexadecimal  [32-Bits]

Area                                    Addr        Size        Decimal Bytes (Attributes)
--------------------------------        ----        ----        ------- ----- ------------
_HEADER0                            00000000    00000000 =           0. bytes (ABS,CON)

      Value  Global                              Global Defined In Module
      -----  --------------------------------   ------------------------
     00000000  _g_FirstAddr                       crt0

ASxxxx Linker V03.00 + NoICE + sdld,  page 10.
Hexadecimal  [32-Bits]

Area                                    Addr        Size        Decimal Bytes (Attributes)
--------------------------------        ----        ----        ------- ----- ------------
_HOME                               00007633    00000221 =         545. bytes (REL,CON)

      Value  Global                              Global Defined In Module
      -----  --------------------------------   ------------------------
     00007633  __modslong                         _modslong
     000076BB  __modulong                         _modulong
     0000774A  __divslong                         _divslong
     000077DA  __divulong                         _divulong

ASxxxx Linker V03.00 + NoICE + sdld,  page 11.
Hexadecimal  [32-Bits]

Area                                    Addr        Size        Decimal Bytes (Attributes)
--------------------------------        ----        ----        ------- ----- ------------
_INITIALIZER                        00007854    00000011 =          17. bytes (REL,CON)

      Value  Global                              Global Defined In Module
      -----  --------------------------------   ------------------------
ASxxxx Linker V03.00 + NoICE + sdld,  page 12.
Hexadecimal  [32-Bits]

Area                                    Addr        Size        Decimal Bytes (Attributes)
--------------------------------        ----        ----        ------- ----- ------------
_GSFINAL                            00007865    00000000 =           0. bytes (REL,CON)

      Value  Global                              Global Defined In Module
      -----  --------------------------------   ------------------------
     00007865  _g_LastAddr                        crt0

ASxxxx Linker V03.00 + NoICE + sdld,  page 13.
Hexadecimal  [32-Bits]

Area                                    Addr        Size        Decimal Bytes (Attributes)
--------------------------------        ----        ----        ------- ----- ------------
_DATA                               0000C000    0000008B =         139. bytes (REL,CON)

      Value  Global                              Global Defined In Module
      -----  --------------------------------   ------------------------
     0000C000  _g_HeapStartAddress                crt0
     0000C002  _g_ROMSlotID                       crt0
     0000C00B  _brain_index_comp                  
     0000C00C  _brain_data_comp                   
     0000C00D  _g_VDP_REGSAV                      vdp
     0000C029  _g_VDP_Data                        vdp
     0000C02B  _g_VDP_Command                     vdp
     0000C03A  _g_VDP_Sprite                      vdp
     0000C03E  _g_ScreenLayoutLow                 vdp
     0000C040  _g_ScreenColorLow                  vdp
     0000C042  _g_ScreenPatternLow                vdp
     0000C044  _g_SpriteAttributeLow              vdp
     0000C046  _g_SpritePatternLow                vdp
     0000C048  _g_SpriteColorLow                  vdp
     0000C04A  _g_ScreenLayoutHigh                vdp
     0000C04B  _g_ScreenColorHigh                 vdp
     0000C04C  _g_ScreenPatternHigh               vdp
     0000C04D  _g_SpriteAttributeHigh             vdp
     0000C04E  _g_SpritePatternHigh               vdp
     0000C04F  _g_SpriteColorHigh                 vdp
     0000C050  _g_PrintData                       print
ASxxxx Linker V03.00 + NoICE + sdld,  page 14.
Hexadecimal  [32-Bits]

Area                                    Addr        Size        Decimal Bytes (Attributes)
--------------------------------        ----        ----        ------- ----- ------------
_INITIALIZED                        0000C08B    00000011 =          17. bytes (REL,CON)

      Value  Global                              Global Defined In Module
      -----  --------------------------------   ------------------------
     0000C08B  _g_CurrentKey                      main
     0000C08F  _g_VDPInitilized                   vdp
     0000C090  _g_RandomSeed8                     math
     0000C092  _g_RandomSeed16                    math
     0000C094  _g_PrintInvalid                    print

ASxxxx Linker V03.00 + NoICE + sdld,  page 15.

Files Linked                              [ module(s) ]

C:\MSX\msxGL-demo\MSXai/out/crt0_rom48.rel
                                          [ crt0 ]
C:\MSX\msxGL-demo\MSXai/out/main.rel      [ main ]
C:\MSX\msxGL-demo\MSXai/out/brain_data.rel
                                          [  ]


Libraries Linked                          [ object file ]

C:\MSX\msxGL-demo\MSXai/out/msxgl.lib     [ vdp.rel ]
C:\MSX\msxGL-demo\MSXai/out/msxgl.lib     [ math.rel ]
C:\MSX\msxGL-demo\MSXai/out/msxgl.lib     [ print.rel ]
C:\MSX\msxGL-demo\MSXai/out/msxgl.lib     [ pletter.rel ]
C:\MSX\MSXgl-1.4.1\tools/sdcc/lib/z80/z80.lib
                                          [ modunsigned.rel ]
C:\MSX\MSXgl-1.4.1\tools/sdcc/lib/z80/z80.lib
                                          [ divunsigned.rel ]
C:\MSX\MSXgl-1.4.1\tools/sdcc/lib/z80/z80.lib
                                          [ mul.rel ]
C:\MSX\MSXgl-1.4.1\tools/sdcc/lib/z80/z80.lib
                                          [ _modslong.rel ]
C:\MSX\MSXgl-1.4.1\tools/sdcc/lib/z80/z80.lib
                                          [ _modulong.rel ]
C:\MSX\MSXgl-1.4.1\tools/sdcc/lib/z80/z80.lib
                                          [ _divslong.rel ]
C:\MSX\MSXgl-1.4.1\tools/sdcc/lib/z80/z80.lib
                                          [ _divulong.rel ]
C:\MSX\MSXgl-1.4.1\tools/sdcc/lib/z80/z80.lib
                                          [ __sdcc_call_hl.rel ]

ASxxxx Linker V03.00 + NoICE + sdld,  page 16.

User Base Address Definitions

_CODE = 0x4000
_DATA = 0xc000


?ASlink-Warning-Undefined Global '_Keyboard_ReadNextChar' referenced by module 'main'
