                                      1 ;--------------------------------------------------------
                                      2 ; File Created by SDCC : free open source ANSI-C Compiler
                                      3 ; Version 4.2.0 #13081 (MINGW64)
                                      4 ;--------------------------------------------------------
                                      5 	.module print
                                      6 	.optsdcc -mz80
                                      7 	
                                      8 ;--------------------------------------------------------
                                      9 ; Public variables in this module
                                     10 ;--------------------------------------------------------
                                     11 	.globl _CopyNo8HeightFontData
                                     12 	.globl _Print_ValidatePattern
                                     13 	.globl _Print_ValidateChar
                                     14 	.globl _Print_InitColorBuffer
                                     15 	.globl _Print_MergeColor
                                     16 	.globl _Print_SplitColor
                                     17 	.globl _VDP_CommandWriteLoop
                                     18 	.globl _VDP_CommandSetupR36
                                     19 	.globl _VDP_CommandSetupR32
                                     20 	.globl _VDP_CommandWait
                                     21 	.globl _VDP_SetSpriteExMultiColor
                                     22 	.globl _VDP_Poke_128K
                                     23 	.globl _VDP_FillVRAM_128K
                                     24 	.globl _VDP_WriteVRAM_128K
                                     25 	.globl _VDP_RegWrite
                                     26 	.globl _g_PrintInvalid
                                     27 	.globl _g_PrintData
                                     28 	.globl _g_SLTSL
                                     29 	.globl _g_GRPACY
                                     30 	.globl _g_GRPACX
                                     31 	.globl _g_LOGOPR
                                     32 	.globl _g_CMASK
                                     33 	.globl _g_CLOC
                                     34 	.globl _g_FNKSTR
                                     35 	.globl _g_ATRBYT
                                     36 	.globl _g_BDRCLR
                                     37 	.globl _g_BAKCLR
                                     38 	.globl _g_FORCLR
                                     39 	.globl _g_CSRX
                                     40 	.globl _g_CSRY
                                     41 	.globl _g_CLIKSW
                                     42 	.globl _g_MLTPAT
                                     43 	.globl _g_MLTATR
                                     44 	.globl _g_MLTCGP
                                     45 	.globl _g_MLTCOL
                                     46 	.globl _g_MLTNAM
                                     47 	.globl _g_GRPPAT
                                     48 	.globl _g_GRPATR
                                     49 	.globl _g_GRPCGP
                                     50 	.globl _g_GRPCOL
                                     51 	.globl _g_GRPNAM
                                     52 	.globl _g_T32PAT
                                     53 	.globl _g_T32ATR
                                     54 	.globl _g_T32CGP
                                     55 	.globl _g_T32COL
                                     56 	.globl _g_T32NAM
                                     57 	.globl _g_TXTPAT
                                     58 	.globl _g_TXTATR
                                     59 	.globl _g_TXTCGP
                                     60 	.globl _g_TXTCOL
                                     61 	.globl _g_TXTNAM
                                     62 	.globl _g_CLMLST
                                     63 	.globl _g_CRTCNT
                                     64 	.globl _g_LINLEN
                                     65 	.globl _g_LINL32
                                     66 	.globl _g_LINL40
                                     67 	.globl _g_HexChar
                                     68 	.globl _g_CHAR_16
                                     69 	.globl _g_MSXMID
                                     70 	.globl _g_MSXVER
                                     71 	.globl _g_ROMVersion
                                     72 	.globl _g_BASRVN
                                     73 	.globl _g_VDP_DW
                                     74 	.globl _g_VDP_DR
                                     75 	.globl _g_CGTABL
                                     76 	.globl _g_SVFFFD
                                     77 	.globl _g_RG27SAV
                                     78 	.globl _g_RG26SAV
                                     79 	.globl _g_RG25SAV
                                     80 	.globl _g_SVFFF8
                                     81 	.globl _g_MINROM
                                     82 	.globl _g_RG23SAV
                                     83 	.globl _g_RG22SAV
                                     84 	.globl _g_RG21SAV
                                     85 	.globl _g_RG20SAV
                                     86 	.globl _g_RG19SAV
                                     87 	.globl _g_RG18SAV
                                     88 	.globl _g_RG17SAV
                                     89 	.globl _g_RG16SAV
                                     90 	.globl _g_RG15SAV
                                     91 	.globl _g_RG14SAV
                                     92 	.globl _g_RG13SAV
                                     93 	.globl _g_RG12SAV
                                     94 	.globl _g_RG11SAV
                                     95 	.globl _g_RG10SAV
                                     96 	.globl _g_RG09SAV
                                     97 	.globl _g_RG08SAV
                                     98 	.globl _g_PROCNM
                                     99 	.globl _g_SLTWRK
                                    100 	.globl _g_SLTATR
                                    101 	.globl _g_SLTTBL
                                    102 	.globl _g_EXPTBL
                                    103 	.globl _g_MNROM
                                    104 	.globl _g_DRWANG
                                    105 	.globl _g_DRWSCL
                                    106 	.globl _g_DRWFLG
                                    107 	.globl _g_GYPOS
                                    108 	.globl _g_GXPOS
                                    109 	.globl _g_BRDATR
                                    110 	.globl _g_CASPRV
                                    111 	.globl _g_OLDSCR
                                    112 	.globl _g_SCRMOD
                                    113 	.globl _g_FLBMEM
                                    114 	.globl _g_KANAMD
                                    115 	.globl _g_KANAST
                                    116 	.globl _g_CAPST
                                    117 	.globl _g_CSTYLE
                                    118 	.globl _g_CSRSW
                                    119 	.globl _g_INSFLG
                                    120 	.globl _g_ESCCNT
                                    121 	.globl _g_GRPHED
                                    122 	.globl _g_WINWID
                                    123 	.globl _g_LOWLIM
                                    124 	.globl _g_INTCNT
                                    125 	.globl _g_INTVAL
                                    126 	.globl _g_JIFFY
                                    127 	.globl _g_PADX
                                    128 	.globl _g_PADY
                                    129 	.globl _g_INTFLG
                                    130 	.globl _g_RTYCNT
                                    131 	.globl _g_TRPTBL
                                    132 	.globl _g_HIMEM
                                    133 	.globl _g_BOTTOM
                                    134 	.globl _g_PATWRK
                                    135 	.globl _g_LINWRK
                                    136 	.globl _g_KEYBUF
                                    137 	.globl _g_NEWKEY
                                    138 	.globl _g_OLDKEY
                                    139 	.globl _g_CLIKFL
                                    140 	.globl _g_ONGSBF
                                    141 	.globl _g_FNKFLG
                                    142 	.globl _g_FNKSWI
                                    143 	.globl _g_CODSAV
                                    144 	.globl _g_FSTPOS
                                    145 	.globl _g_LINTTB
                                    146 	.globl _g_BASROM
                                    147 	.globl _g_ENSTOP
                                    148 	.globl _g_VCBC
                                    149 	.globl _g_VCBB
                                    150 	.globl _g_VCBA
                                    151 	.globl _g_PLYCNT
                                    152 	.globl _g_MUSICF
                                    153 	.globl _g_QUEUEN
                                    154 	.globl _g_MCLPTR
                                    155 	.globl _g_MCLLEN
                                    156 	.globl _g_SAVVOL
                                    157 	.globl _g_VOICEN
                                    158 	.globl _g_SAVSP
                                    159 	.globl _g_PRSCNT
                                    160 	.globl _g_LSTMOD
                                    161 	.globl _g_LSTCOM
                                    162 	.globl _g_COMMSK
                                    163 	.globl _g_ESTBLS
                                    164 	.globl _g_FLAGS
                                    165 	.globl _g_ERRORS
                                    166 	.globl _g_DATCNT
                                    167 	.globl _g_DEVNUM
                                    168 	.globl _g_OLDINT
                                    169 	.globl _g_OLDSTT
                                    170 	.globl _g_MEXBIh
                                    171 	.globl _g_RSIQLN
                                    172 	.globl _g_RSFCB
                                    173 	.globl _g_TOCNT
                                    174 	.globl _g_RSTMP
                                    175 	.globl _g_YSAVE
                                    176 	.globl _g_XSAVE
                                    177 	.globl _g_NORUSE
                                    178 	.globl _g_MODE
                                    179 	.globl _g_ROMA
                                    180 	.globl _g_CHRCNT
                                    181 	.globl _g_EXBRSA
                                    182 	.globl _g_AVCSAV
                                    183 	.globl _g_ACPAGE
                                    184 	.globl _g_DPPAGE
                                    185 	.globl _g_RS2IQ
                                    186 	.globl _g_VOICCQ
                                    187 	.globl _g_VOICBQ
                                    188 	.globl _g_VOICAQ
                                    189 	.globl _g_QUEBAK
                                    190 	.globl _g_QUETAB
                                    191 	.globl _g_ASPCT2
                                    192 	.globl _g_ASPCT1
                                    193 	.globl _g_HEADER
                                    194 	.globl _g_HIGH
                                    195 	.globl _g_LOW
                                    196 	.globl _g_CS240
                                    197 	.globl _g_CS120
                                    198 	.globl _g_GETPNT
                                    199 	.globl _g_PUTPNT
                                    200 	.globl _g_REPCNT
                                    201 	.globl _g_SCNCNT
                                    202 	.globl _g_FRCNEW
                                    203 	.globl _g_QUEUES
                                    204 	.globl _g_MINUPD
                                    205 	.globl _g_MAXUPD
                                    206 	.globl _g_TRGFLG
                                    207 	.globl _g_STATFL
                                    208 	.globl _g_RG7SAV
                                    209 	.globl _g_RG6SAV
                                    210 	.globl _g_RG5SAV
                                    211 	.globl _g_RG4SAV
                                    212 	.globl _g_RG3SAV
                                    213 	.globl _g_RG2SAV
                                    214 	.globl _g_RG1SAV
                                    215 	.globl _g_RG0SAV
                                    216 	.globl _g_CNSDFG
                                    217 	.globl _g_USRTAB
                                    218 	.globl _g_CLPRIM
                                    219 	.globl _g_WRPRIM
                                    220 	.globl _g_RDPRIM
                                    221 	.globl _Print_Initialize
                                    222 	.globl _Print_SetMode
                                    223 	.globl _Print_SetFont
                                    224 	.globl _Print_SetColor
                                    225 	.globl _Print_SetColorShade
                                    226 	.globl _Print_SetBitmapFont
                                    227 	.globl _DrawChar_8B
                                    228 	.globl _DrawChar_4B
                                    229 	.globl _DrawChar_2B
                                    230 	.globl _DrawChar_Trans
                                    231 	.globl _Print_SetVRAMFont
                                    232 	.globl _DrawChar_VRAM256
                                    233 	.globl _DrawChar_VRAM512
                                    234 	.globl _Print_SetTextFont
                                    235 	.globl _DrawChar_Layout
                                    236 	.globl _Print_SetSpriteFont
                                    237 	.globl _DrawChar_Sprite
                                    238 	.globl _Print_SetShadow
                                    239 	.globl _Print_EnableShadow
                                    240 	.globl _Print_SetOutline
                                    241 	.globl _Print_EnableOutline
                                    242 	.globl _Print_Clear
                                    243 	.globl _Print_Backspace
                                    244 	.globl _Print_DrawChar
                                    245 	.globl _Print_DrawCharX
                                    246 	.globl _Print_DrawText
                                    247 	.globl _Print_DrawBin8
                                    248 	.globl _Print_DrawHex8
                                    249 	.globl _Print_DrawHex16
                                    250 	.globl _Print_DrawHex32
                                    251 	.globl _Print_DrawInt
                                    252 	.globl _Print_DrawFormat
                                    253 	.globl _Print_DrawLineH
                                    254 	.globl _Print_DrawLineV
                                    255 	.globl _Print_DrawBox
                                    256 ;--------------------------------------------------------
                                    257 ; special function registers
                                    258 ;--------------------------------------------------------
                                    259 ;--------------------------------------------------------
                                    260 ; ram data
                                    261 ;--------------------------------------------------------
                                    262 	.area _DATA
                         0000F3AE   263 _g_LINL40	=	0xf3ae
                         0000F3AF   264 _g_LINL32	=	0xf3af
                         0000F3B0   265 _g_LINLEN	=	0xf3b0
                         0000F3B1   266 _g_CRTCNT	=	0xf3b1
                         0000F3B2   267 _g_CLMLST	=	0xf3b2
                         0000F3B3   268 _g_TXTNAM	=	0xf3b3
                         0000F3B5   269 _g_TXTCOL	=	0xf3b5
                         0000F3B7   270 _g_TXTCGP	=	0xf3b7
                         0000F3B9   271 _g_TXTATR	=	0xf3b9
                         0000F3BB   272 _g_TXTPAT	=	0xf3bb
                         0000F3BD   273 _g_T32NAM	=	0xf3bd
                         0000F3BF   274 _g_T32COL	=	0xf3bf
                         0000F3C1   275 _g_T32CGP	=	0xf3c1
                         0000F3C3   276 _g_T32ATR	=	0xf3c3
                         0000F3C5   277 _g_T32PAT	=	0xf3c5
                         0000F3C7   278 _g_GRPNAM	=	0xf3c7
                         0000F3C9   279 _g_GRPCOL	=	0xf3c9
                         0000F3CB   280 _g_GRPCGP	=	0xf3cb
                         0000F3CD   281 _g_GRPATR	=	0xf3cd
                         0000F3CF   282 _g_GRPPAT	=	0xf3cf
                         0000F3D1   283 _g_MLTNAM	=	0xf3d1
                         0000F3D3   284 _g_MLTCOL	=	0xf3d3
                         0000F3D5   285 _g_MLTCGP	=	0xf3d5
                         0000F3D7   286 _g_MLTATR	=	0xf3d7
                         0000F3D9   287 _g_MLTPAT	=	0xf3d9
                         0000F3DB   288 _g_CLIKSW	=	0xf3db
                         0000F3DC   289 _g_CSRY	=	0xf3dc
                         0000F3DD   290 _g_CSRX	=	0xf3dd
                         0000F3E9   291 _g_FORCLR	=	0xf3e9
                         0000F3EA   292 _g_BAKCLR	=	0xf3ea
                         0000F3EB   293 _g_BDRCLR	=	0xf3eb
                         0000F3F2   294 _g_ATRBYT	=	0xf3f2
                         0000F87F   295 _g_FNKSTR	=	0xf87f
                         0000F92A   296 _g_CLOC	=	0xf92a
                         0000F92C   297 _g_CMASK	=	0xf92c
                         0000FB02   298 _g_LOGOPR	=	0xfb02
                         0000FCB7   299 _g_GRPACX	=	0xfcb7
                         0000FCB9   300 _g_GRPACY	=	0xfcb9
                         0000FFFF   301 _g_SLTSL	=	0xffff
    00000000                        302 _g_PrintData::
    00000000                        303 	.ds 59
                                    304 ;--------------------------------------------------------
                                    305 ; ram data
                                    306 ;--------------------------------------------------------
                                    307 	.area _INITIALIZED
    00000000                        308 _g_PrintInvalid::
    00000000                        309 	.ds 8
                                    310 ;--------------------------------------------------------
                                    311 ; absolute external ram data
                                    312 ;--------------------------------------------------------
                                    313 	.area _DABS (ABS)
                                    314 ;--------------------------------------------------------
                                    315 ; global & static initialisations
                                    316 ;--------------------------------------------------------
                                    317 	.area _HOME
                                    318 	.area _GSINIT
                                    319 	.area _GSFINAL
                                    320 	.area _GSINIT
                                    321 ;--------------------------------------------------------
                                    322 ; Home
                                    323 ;--------------------------------------------------------
                                    324 	.area _HOME
                                    325 	.area _HOME
                                    326 ;--------------------------------------------------------
                                    327 ; code
                                    328 ;--------------------------------------------------------
                                    329 	.area _CODE
                                    330 ;C:\MSX\MSXgl-1.4.1\engine/src/print.c:103: u8 Print_SplitColor(u8 color)
                                    331 ;	---------------------------------
                                    332 ; Function Print_SplitColor
                                    333 ; ---------------------------------
    00000000                        334 _Print_SplitColor::
    00000000 4F               [ 4]  335 	ld	c, a
                                    336 ;C:\MSX\MSXgl-1.4.1\engine/src/print.c:106: if (PRINT_DATA.SourceMode == PRINT_MODE_SPRITE)
    00000001 3Ar1Ar00         [13]  337 	ld	a, (#_g_PrintData+26)
    00000004 E6 0F            [ 7]  338 	and	a, #0x0f
    00000006 D6 04            [ 7]  339 	sub	a, #0x04
    00000008 20 02            [12]  340 	jr	NZ, 00102$
                                    341 ;C:\MSX\MSXgl-1.4.1\engine/src/print.c:107: return color;
    0000000A 79               [ 4]  342 	ld	a, c
    0000000B C9               [10]  343 	ret
    0000000C                        344 00102$:
                                    345 ;C:\MSX\MSXgl-1.4.1\engine/src/vdp.h:483: inline u8 VDP_GetMode() { return g_VDP_Data.Mode; }
    0000000C 3Ar00r00         [13]  346 	ld	a, (#_g_VDP_Data + 0)
                                    347 ;C:\MSX\MSXgl-1.4.1\engine/src/print.c:110: switch (VDP_GetMode())
    0000000F FE 06            [ 7]  348 	cp	a, #0x06
    00000011 28 0F            [12]  349 	jr	Z, 00103$
    00000013 FE 07            [ 7]  350 	cp	a, #0x07
    00000015 28 0F            [12]  351 	jr	Z, 00104$
    00000017 FE 08            [ 7]  352 	cp	a, #0x08
    00000019 28 0F            [12]  353 	jr	Z, 00105$
    0000001B D6 09            [ 7]  354 	sub	a, #0x09
    0000001D 28 0F            [12]  355 	jr	Z, 00106$
    0000001F C3r30r00         [10]  356 	jp	00107$
                                    357 ;C:\MSX\MSXgl-1.4.1\engine/src/print.c:113: case VDP_MODE_GRAPHIC4: return color & 0x0F;
    00000022                        358 00103$:
    00000022 79               [ 4]  359 	ld	a, c
    00000023 E6 0F            [ 7]  360 	and	a, #0x0f
    00000025 C9               [10]  361 	ret
                                    362 ;C:\MSX\MSXgl-1.4.1\engine/src/print.c:116: case VDP_MODE_GRAPHIC5: return color & 0x03;
    00000026                        363 00104$:
    00000026 79               [ 4]  364 	ld	a, c
    00000027 E6 03            [ 7]  365 	and	a, #0x03
    00000029 C9               [10]  366 	ret
                                    367 ;C:\MSX\MSXgl-1.4.1\engine/src/print.c:119: case VDP_MODE_GRAPHIC6: return color & 0x0F;
    0000002A                        368 00105$:
    0000002A 79               [ 4]  369 	ld	a, c
    0000002B E6 0F            [ 7]  370 	and	a, #0x0f
    0000002D C9               [10]  371 	ret
                                    372 ;C:\MSX\MSXgl-1.4.1\engine/src/print.c:122: case VDP_MODE_GRAPHIC7: return color;
    0000002E                        373 00106$:
    0000002E 79               [ 4]  374 	ld	a, c
    0000002F C9               [10]  375 	ret
                                    376 ;C:\MSX\MSXgl-1.4.1\engine/src/print.c:124: }
    00000030                        377 00107$:
                                    378 ;C:\MSX\MSXgl-1.4.1\engine/src/print.c:125: return color;
    00000030 79               [ 4]  379 	ld	a, c
                                    380 ;C:\MSX\MSXgl-1.4.1\engine/src/print.c:126: }
    00000031 C9               [10]  381 	ret
                         0000F380   382 _g_RDPRIM	=	0xf380
                         0000F385   383 _g_WRPRIM	=	0xf385
                         0000F38C   384 _g_CLPRIM	=	0xf38c
                         0000F39A   385 _g_USRTAB	=	0xf39a
                         0000F3DE   386 _g_CNSDFG	=	0xf3de
                         0000F3DF   387 _g_RG0SAV	=	0xf3df
                         0000F3E0   388 _g_RG1SAV	=	0xf3e0
                         0000F3E1   389 _g_RG2SAV	=	0xf3e1
                         0000F3E2   390 _g_RG3SAV	=	0xf3e2
                         0000F3E3   391 _g_RG4SAV	=	0xf3e3
                         0000F3E4   392 _g_RG5SAV	=	0xf3e4
                         0000F3E5   393 _g_RG6SAV	=	0xf3e5
                         0000F3E6   394 _g_RG7SAV	=	0xf3e6
                         0000F3E7   395 _g_STATFL	=	0xf3e7
                         0000F3E8   396 _g_TRGFLG	=	0xf3e8
                         0000F3EC   397 _g_MAXUPD	=	0xf3ec
                         0000F3EF   398 _g_MINUPD	=	0xf3ef
                         0000F3F3   399 _g_QUEUES	=	0xf3f3
                         0000F3F5   400 _g_FRCNEW	=	0xf3f5
                         0000F3F6   401 _g_SCNCNT	=	0xf3f6
                         0000F3F7   402 _g_REPCNT	=	0xf3f7
                         0000F3F8   403 _g_PUTPNT	=	0xf3f8
                         0000F3FA   404 _g_GETPNT	=	0xf3fa
                         0000F3FC   405 _g_CS120	=	0xf3fc
                         0000F401   406 _g_CS240	=	0xf401
                         0000F406   407 _g_LOW	=	0xf406
                         0000F408   408 _g_HIGH	=	0xf408
                         0000F40A   409 _g_HEADER	=	0xf40a
                         0000F40B   410 _g_ASPCT1	=	0xf40b
                         0000F40D   411 _g_ASPCT2	=	0xf40d
                         0000F959   412 _g_QUETAB	=	0xf959
                         0000F971   413 _g_QUEBAK	=	0xf971
                         0000F975   414 _g_VOICAQ	=	0xf975
                         0000F9F5   415 _g_VOICBQ	=	0xf9f5
                         0000FA75   416 _g_VOICCQ	=	0xfa75
                         0000FAF5   417 _g_RS2IQ	=	0xfaf5
                         0000FAF5   418 _g_DPPAGE	=	0xfaf5
                         0000FAF6   419 _g_ACPAGE	=	0xfaf6
                         0000FAF7   420 _g_AVCSAV	=	0xfaf7
                         0000FAF8   421 _g_EXBRSA	=	0xfaf8
                         0000FAF9   422 _g_CHRCNT	=	0xfaf9
                         0000FAFA   423 _g_ROMA	=	0xfafa
                         0000FAFC   424 _g_MODE	=	0xfafc
                         0000FAFD   425 _g_NORUSE	=	0xfafd
                         0000FAFE   426 _g_XSAVE	=	0xfafe
                         0000FB00   427 _g_YSAVE	=	0xfb00
                         0000FB03   428 _g_RSTMP	=	0xfb03
                         0000FB03   429 _g_TOCNT	=	0xfb03
                         0000FB04   430 _g_RSFCB	=	0xfb04
                         0000FB06   431 _g_RSIQLN	=	0xfb06
                         0000FB07   432 _g_MEXBIh	=	0xfb07
                         0000FB0C   433 _g_OLDSTT	=	0xfb0c
                         0000FB0C   434 _g_OLDINT	=	0xfb0c
                         0000FB16   435 _g_DEVNUM	=	0xfb16
                         0000FB17   436 _g_DATCNT	=	0xfb17
                         0000FB1A   437 _g_ERRORS	=	0xfb1a
                         0000FB1B   438 _g_FLAGS	=	0xfb1b
                         0000FB1C   439 _g_ESTBLS	=	0xfb1c
                         0000FB1D   440 _g_COMMSK	=	0xfb1d
                         0000FB1E   441 _g_LSTCOM	=	0xfb1e
                         0000FB1F   442 _g_LSTMOD	=	0xfb1f
                         0000FB35   443 _g_PRSCNT	=	0xfb35
                         0000FB36   444 _g_SAVSP	=	0xfb36
                         0000FB38   445 _g_VOICEN	=	0xfb38
                         0000FB39   446 _g_SAVVOL	=	0xfb39
                         0000FB3B   447 _g_MCLLEN	=	0xfb3b
                         0000FB3C   448 _g_MCLPTR	=	0xfb3c
                         0000FB3E   449 _g_QUEUEN	=	0xfb3e
                         0000FB3F   450 _g_MUSICF	=	0xfb3f
                         0000FB40   451 _g_PLYCNT	=	0xfb40
                         0000FB41   452 _g_VCBA	=	0xfb41
                         0000FB66   453 _g_VCBB	=	0xfb66
                         0000FB8B   454 _g_VCBC	=	0xfb8b
                         0000FBB0   455 _g_ENSTOP	=	0xfbb0
                         0000FBB1   456 _g_BASROM	=	0xfbb1
                         0000FBB2   457 _g_LINTTB	=	0xfbb2
                         0000FBCA   458 _g_FSTPOS	=	0xfbca
                         0000FBCC   459 _g_CODSAV	=	0xfbcc
                         0000FBCD   460 _g_FNKSWI	=	0xfbcd
                         0000FBCE   461 _g_FNKFLG	=	0xfbce
                         0000FBD8   462 _g_ONGSBF	=	0xfbd8
                         0000FBD9   463 _g_CLIKFL	=	0xfbd9
                         0000FBDA   464 _g_OLDKEY	=	0xfbda
                         0000FBE5   465 _g_NEWKEY	=	0xfbe5
                         0000FBF0   466 _g_KEYBUF	=	0xfbf0
                         0000FC18   467 _g_LINWRK	=	0xfc18
                         0000FC40   468 _g_PATWRK	=	0xfc40
                         0000FC48   469 _g_BOTTOM	=	0xfc48
                         0000FC4A   470 _g_HIMEM	=	0xfc4a
                         0000FC4C   471 _g_TRPTBL	=	0xfc4c
                         0000FC9A   472 _g_RTYCNT	=	0xfc9a
                         0000FC9B   473 _g_INTFLG	=	0xfc9b
                         0000FC9C   474 _g_PADY	=	0xfc9c
                         0000FC9D   475 _g_PADX	=	0xfc9d
                         0000FC9E   476 _g_JIFFY	=	0xfc9e
                         0000FCA0   477 _g_INTVAL	=	0xfca0
                         0000FCA2   478 _g_INTCNT	=	0xfca2
                         0000FCA4   479 _g_LOWLIM	=	0xfca4
                         0000FCA5   480 _g_WINWID	=	0xfca5
                         0000FCA6   481 _g_GRPHED	=	0xfca6
                         0000FCA7   482 _g_ESCCNT	=	0xfca7
                         0000FCA8   483 _g_INSFLG	=	0xfca8
                         0000FCA9   484 _g_CSRSW	=	0xfca9
                         0000FCAA   485 _g_CSTYLE	=	0xfcaa
                         0000FCAB   486 _g_CAPST	=	0xfcab
                         0000FCAC   487 _g_KANAST	=	0xfcac
                         0000FCAD   488 _g_KANAMD	=	0xfcad
                         0000FCAE   489 _g_FLBMEM	=	0xfcae
                         0000FCAF   490 _g_SCRMOD	=	0xfcaf
                         0000FCB0   491 _g_OLDSCR	=	0xfcb0
                         0000FCB1   492 _g_CASPRV	=	0xfcb1
                         0000FCB2   493 _g_BRDATR	=	0xfcb2
                         0000FCB3   494 _g_GXPOS	=	0xfcb3
                         0000FCB5   495 _g_GYPOS	=	0xfcb5
                         0000FCBB   496 _g_DRWFLG	=	0xfcbb
                         0000FCBC   497 _g_DRWSCL	=	0xfcbc
                         0000FCBD   498 _g_DRWANG	=	0xfcbd
                         0000FCC1   499 _g_MNROM	=	0xfcc1
                         0000FCC1   500 _g_EXPTBL	=	0xfcc1
                         0000FCC5   501 _g_SLTTBL	=	0xfcc5
                         0000FCC9   502 _g_SLTATR	=	0xfcc9
                         0000FD09   503 _g_SLTWRK	=	0xfd09
                         0000FD89   504 _g_PROCNM	=	0xfd89
                         0000FFE7   505 _g_RG08SAV	=	0xffe7
                         0000FFE8   506 _g_RG09SAV	=	0xffe8
                         0000FFE9   507 _g_RG10SAV	=	0xffe9
                         0000FFEA   508 _g_RG11SAV	=	0xffea
                         0000FFEB   509 _g_RG12SAV	=	0xffeb
                         0000FFEC   510 _g_RG13SAV	=	0xffec
                         0000FFED   511 _g_RG14SAV	=	0xffed
                         0000FFEE   512 _g_RG15SAV	=	0xffee
                         0000FFEF   513 _g_RG16SAV	=	0xffef
                         0000FFF0   514 _g_RG17SAV	=	0xfff0
                         0000FFF1   515 _g_RG18SAV	=	0xfff1
                         0000FFF2   516 _g_RG19SAV	=	0xfff2
                         0000FFF3   517 _g_RG20SAV	=	0xfff3
                         0000FFF4   518 _g_RG21SAV	=	0xfff4
                         0000FFF5   519 _g_RG22SAV	=	0xfff5
                         0000FFF6   520 _g_RG23SAV	=	0xfff6
                         0000FFF7   521 _g_MINROM	=	0xfff7
                         0000FFF8   522 _g_SVFFF8	=	0xfff8
                         0000FFFA   523 _g_RG25SAV	=	0xfffa
                         0000FFFB   524 _g_RG26SAV	=	0xfffb
                         0000FFFC   525 _g_RG27SAV	=	0xfffc
                         0000FFFD   526 _g_SVFFFD	=	0xfffd
                         00000004   527 _g_CGTABL	=	0x0004
                         00000006   528 _g_VDP_DR	=	0x0006
                         00000007   529 _g_VDP_DW	=	0x0007
                         0000002B   530 _g_BASRVN	=	0x002b
                         0000002B   531 _g_ROMVersion	=	0x002b
                         0000002D   532 _g_MSXVER	=	0x002d
                         0000002E   533 _g_MSXMID	=	0x002e
                         00000034   534 _g_CHAR_16	=	0x0034
    00000032                        535 _g_HexChar:
    00000032 30                     536 	.db #0x30	; 48	'0'
    00000033 31                     537 	.db #0x31	; 49	'1'
    00000034 32                     538 	.db #0x32	; 50	'2'
    00000035 33                     539 	.db #0x33	; 51	'3'
    00000036 34                     540 	.db #0x34	; 52	'4'
    00000037 35                     541 	.db #0x35	; 53	'5'
    00000038 36                     542 	.db #0x36	; 54	'6'
    00000039 37                     543 	.db #0x37	; 55	'7'
    0000003A 38                     544 	.db #0x38	; 56	'8'
    0000003B 39                     545 	.db #0x39	; 57	'9'
    0000003C 41                     546 	.db #0x41	; 65	'A'
    0000003D 42                     547 	.db #0x42	; 66	'B'
    0000003E 43                     548 	.db #0x43	; 67	'C'
    0000003F 44                     549 	.db #0x44	; 68	'D'
    00000040 45                     550 	.db #0x45	; 69	'E'
    00000041 46                     551 	.db #0x46	; 70	'F'
                                    552 ;C:\MSX\MSXgl-1.4.1\engine/src/print.c:129: u8 Print_MergeColor(u8 color)
                                    553 ;	---------------------------------
                                    554 ; Function Print_MergeColor
                                    555 ; ---------------------------------
    00000042                        556 _Print_MergeColor::
    00000042 4F               [ 4]  557 	ld	c, a
                                    558 ;C:\MSX\MSXgl-1.4.1\engine/src/vdp.h:483: inline u8 VDP_GetMode() { return g_VDP_Data.Mode; }
                                    559 ;C:\MSX\MSXgl-1.4.1\engine/src/print.c:131: switch (VDP_GetMode())
    00000043 3Ar00r00         [13]  560 	ld	a, (#_g_VDP_Data+0)
    00000046 FE 06            [ 7]  561 	cp	a,#0x06
    00000048 28 0F            [12]  562 	jr	Z, 00101$
    0000004A FE 07            [ 7]  563 	cp	a,#0x07
    0000004C 28 18            [12]  564 	jr	Z, 00102$
    0000004E FE 08            [ 7]  565 	cp	a,#0x08
    00000050 28 3F            [12]  566 	jr	Z, 00103$
    00000052 D6 09            [ 7]  567 	sub	a, #0x09
    00000054 28 48            [12]  568 	jr	Z, 00104$
    00000056 C3rA0r00         [10]  569 	jp	00105$
                                    570 ;C:\MSX\MSXgl-1.4.1\engine/src/print.c:134: case VDP_MODE_GRAPHIC4: return (color & 0x0F) << 4 | (color & 0x0F);
    00000059                        571 00101$:
    00000059 79               [ 4]  572 	ld	a, c
    0000005A E6 0F            [ 7]  573 	and	a, #0x0f
    0000005C 87               [ 4]  574 	add	a, a
    0000005D 87               [ 4]  575 	add	a, a
    0000005E 87               [ 4]  576 	add	a, a
    0000005F 87               [ 4]  577 	add	a, a
    00000060 47               [ 4]  578 	ld	b, a
    00000061 79               [ 4]  579 	ld	a, c
    00000062 E6 0F            [ 7]  580 	and	a, #0x0f
    00000064 B0               [ 4]  581 	or	a, b
    00000065 C9               [10]  582 	ret
                                    583 ;C:\MSX\MSXgl-1.4.1\engine/src/print.c:137: case VDP_MODE_GRAPHIC5: return (color & 0x03) << 6 + (color & 0x03) << 4 + (color & 0x03) << 2 + (color & 0x03);
    00000066                        584 00102$:
    00000066 79               [ 4]  585 	ld	a, c
    00000067 E6 03            [ 7]  586 	and	a, #0x03
    00000069 4F               [ 4]  587 	ld	c, a
    0000006A C6 06            [ 7]  588 	add	a, #0x06
    0000006C F5               [11]  589 	push	af
    0000006D 59               [ 4]  590 	ld	e, c
    0000006E F1               [10]  591 	pop	af
    0000006F 3C               [ 4]  592 	inc	a
    00000070 C3r75r00         [10]  593 	jp	00134$
    00000073                        594 00133$:
    00000073 CB 23            [ 8]  595 	sla	e
    00000075                        596 00134$:
    00000075 3D               [ 4]  597 	dec	a
    00000076 20 FB            [12]  598 	jr	NZ,00133$
    00000078 79               [ 4]  599 	ld	a, c
    00000079 3C               [ 4]  600 	inc	a
    0000007A 3C               [ 4]  601 	inc	a
    0000007B 3C               [ 4]  602 	inc	a
    0000007C 3C               [ 4]  603 	inc	a
    0000007D 47               [ 4]  604 	ld	b, a
    0000007E 7B               [ 4]  605 	ld	a, e
    0000007F 04               [ 4]  606 	inc	b
    00000080 C3r84r00         [10]  607 	jp	00136$
    00000083                        608 00135$:
    00000083 87               [ 4]  609 	add	a, a
    00000084                        610 00136$:
    00000084 10 FD            [13]  611 	djnz	00135$
    00000086 0C               [ 4]  612 	inc	c
    00000087 0C               [ 4]  613 	inc	c
    00000088 0C               [ 4]  614 	inc	c
    00000089 C3r8Dr00         [10]  615 	jp	00138$
    0000008C                        616 00137$:
    0000008C 87               [ 4]  617 	add	a, a
    0000008D                        618 00138$:
    0000008D 0D               [ 4]  619 	dec	c
    0000008E 20 FC            [12]  620 	jr	NZ,00137$
    00000090 C9               [10]  621 	ret
                                    622 ;C:\MSX\MSXgl-1.4.1\engine/src/print.c:140: case VDP_MODE_GRAPHIC6: return (color & 0x0F) << 4 | (color & 0x0F);
    00000091                        623 00103$:
    00000091 79               [ 4]  624 	ld	a, c
    00000092 E6 0F            [ 7]  625 	and	a, #0x0f
    00000094 87               [ 4]  626 	add	a, a
    00000095 87               [ 4]  627 	add	a, a
    00000096 87               [ 4]  628 	add	a, a
    00000097 87               [ 4]  629 	add	a, a
    00000098 47               [ 4]  630 	ld	b, a
    00000099 79               [ 4]  631 	ld	a, c
    0000009A E6 0F            [ 7]  632 	and	a, #0x0f
    0000009C B0               [ 4]  633 	or	a, b
    0000009D C9               [10]  634 	ret
                                    635 ;C:\MSX\MSXgl-1.4.1\engine/src/print.c:143: case VDP_MODE_GRAPHIC7: return color;
    0000009E                        636 00104$:
    0000009E 79               [ 4]  637 	ld	a, c
    0000009F C9               [10]  638 	ret
                                    639 ;C:\MSX\MSXgl-1.4.1\engine/src/print.c:145: }
    000000A0                        640 00105$:
                                    641 ;C:\MSX\MSXgl-1.4.1\engine/src/print.c:146: return color;
    000000A0 79               [ 4]  642 	ld	a, c
                                    643 ;C:\MSX\MSXgl-1.4.1\engine/src/print.c:147: }
    000000A1 C9               [10]  644 	ret
                                    645 ;C:\MSX\MSXgl-1.4.1\engine/src/print.c:158: bool Print_Initialize()
                                    646 ;	---------------------------------
                                    647 ; Function Print_Initialize
                                    648 ; ---------------------------------
    000000A2                        649 _Print_Initialize::
                                    650 ;C:\MSX\MSXgl-1.4.1\engine/src/print.c:160: Print_SetColor(0xF, 0x0);
    000000A2 2E 00            [ 7]  651 	ld	l, #0x00
                                    652 ;	spillPairReg hl
                                    653 ;	spillPairReg hl
    000000A4 3E 0F            [ 7]  654 	ld	a, #0x0f
    000000A6 CDrBBr04         [17]  655 	call	_Print_SetColor
                                    656 ;C:\MSX\MSXgl-1.4.1\engine/src/print.h:268: PRINT_DATA.CursorX = x;
    000000A9 21 00 00         [10]  657 	ld	hl, #0x0000
    000000AC 22r05r00         [16]  658 	ld	((_g_PrintData + 5)), hl
                                    659 ;C:\MSX\MSXgl-1.4.1\engine/src/print.h:269: PRINT_DATA.CursorY = y;
    000000AF 21r07r00         [10]  660 	ld	hl, #(_g_PrintData + 7)
    000000B2 36 00            [10]  661 	ld	(hl), #0x00
                                    662 ;C:\MSX\MSXgl-1.4.1\engine/src/print.c:163: Print_EnableShadow(FALSE);
    000000B4 AF               [ 4]  663 	xor	a, a
    000000B5 CDr3Fr17         [17]  664 	call	_Print_EnableShadow
                                    665 ;C:\MSX\MSXgl-1.4.1\engine/src/print.c:166: Print_EnableOutline(FALSE);
    000000B8 AF               [ 4]  666 	xor	a, a
    000000B9 CDr6Fr17         [17]  667 	call	_Print_EnableOutline
                                    668 ;C:\MSX\MSXgl-1.4.1\engine/src/vdp.h:483: inline u8 VDP_GetMode() { return g_VDP_Data.Mode; }
    000000BC 21r00r00         [10]  669 	ld	hl, #_g_VDP_Data+0
    000000BF 4E               [ 7]  670 	ld	c, (hl)
                                    671 ;C:\MSX\MSXgl-1.4.1\engine/src/print.c:169: switch (VDP_GetMode()) // Screen mode specific initialization
    000000C0 3E 11            [ 7]  672 	ld	a, #0x11
    000000C2 91               [ 4]  673 	sub	a, c
    000000C3 DAr91r01         [10]  674 	jp	C, 00114$
    000000C6 06 00            [ 7]  675 	ld	b, #0x00
    000000C8 21rCFr00         [10]  676 	ld	hl, #00134$
    000000CB 09               [11]  677 	add	hl, bc
    000000CC 09               [11]  678 	add	hl, bc
    000000CD 09               [11]  679 	add	hl, bc
    000000CE E9               [ 4]  680 	jp	(hl)
    000000CF                        681 00134$:
    000000CF C3r05r01         [10]  682 	jp	00101$
    000000D2 C3r93r01         [10]  683 	jp	00115$
    000000D5 C3r13r01         [10]  684 	jp	00103$
    000000D8 C3r21r01         [10]  685 	jp	00104$
    000000DB C3r2Fr01         [10]  686 	jp	00105$
    000000DE C3r3Dr01         [10]  687 	jp	00109$
    000000E1 C3r4Br01         [10]  688 	jp	00110$
    000000E4 C3r59r01         [10]  689 	jp	00111$
    000000E7 C3r6Er01         [10]  690 	jp	00112$
    000000EA C3r7Cr01         [10]  691 	jp	00113$
    000000ED C3r91r01         [10]  692 	jp	00114$
    000000F0 C3r91r01         [10]  693 	jp	00114$
    000000F3 C3r91r01         [10]  694 	jp	00114$
    000000F6 C3r91r01         [10]  695 	jp	00114$
    000000F9 C3r91r01         [10]  696 	jp	00114$
    000000FC C3r3Dr01         [10]  697 	jp	00109$
    000000FF C3r3Dr01         [10]  698 	jp	00109$
    00000102 C3r3Dr01         [10]  699 	jp	00109$
                                    700 ;C:\MSX\MSXgl-1.4.1\engine/src/print.c:172: case VDP_MODE_TEXT1:		// 40 characters per line of text, one colour for each character
    00000105                        701 00101$:
                                    702 ;C:\MSX\MSXgl-1.4.1\engine/src/print.h:303: inline void Print_SetTabSize(u8 size) { PRINT_DATA.TabSize = size; }
    00000105 21r04r00         [10]  703 	ld	hl, #(_g_PrintData + 4)
    00000108 36 03            [10]  704 	ld	(hl), #0x03
                                    705 ;C:\MSX\MSXgl-1.4.1\engine/src/print.c:174: PRINT_DATA.ScreenWidth = 40;
    0000010A 21 28 00         [10]  706 	ld	hl, #0x0028
    0000010D 22r1Br00         [16]  707 	ld	((_g_PrintData + 27)), hl
                                    708 ;C:\MSX\MSXgl-1.4.1\engine/src/print.c:175: break;
    00000110 C3r93r01         [10]  709 	jp	00115$
                                    710 ;C:\MSX\MSXgl-1.4.1\engine/src/print.c:182: case VDP_MODE_GRAPHIC1:		// 32 characters per one line of text, the COLOURed character available
    00000113                        711 00103$:
                                    712 ;C:\MSX\MSXgl-1.4.1\engine/src/print.h:303: inline void Print_SetTabSize(u8 size) { PRINT_DATA.TabSize = size; }
    00000113 21r04r00         [10]  713 	ld	hl, #(_g_PrintData + 4)
    00000116 36 03            [10]  714 	ld	(hl), #0x03
                                    715 ;C:\MSX\MSXgl-1.4.1\engine/src/print.c:184: PRINT_DATA.ScreenWidth = 32;
    00000118 21 20 00         [10]  716 	ld	hl, #0x0020
    0000011B 22r1Br00         [16]  717 	ld	((_g_PrintData + 27)), hl
                                    718 ;C:\MSX\MSXgl-1.4.1\engine/src/print.c:185: break;
    0000011E C3r93r01         [10]  719 	jp	00115$
                                    720 ;C:\MSX\MSXgl-1.4.1\engine/src/print.c:188: case VDP_MODE_GRAPHIC2:		// 256 x 192, the colour is specififed for each 8 dots
    00000121                        721 00104$:
                                    722 ;C:\MSX\MSXgl-1.4.1\engine/src/print.h:303: inline void Print_SetTabSize(u8 size) { PRINT_DATA.TabSize = size; }
    00000121 21r04r00         [10]  723 	ld	hl, #(_g_PrintData + 4)
    00000124 36 03            [10]  724 	ld	(hl), #0x03
                                    725 ;C:\MSX\MSXgl-1.4.1\engine/src/print.c:190: PRINT_DATA.ScreenWidth = 32;
    00000126 21 20 00         [10]  726 	ld	hl, #0x0020
    00000129 22r1Br00         [16]  727 	ld	((_g_PrintData + 27)), hl
                                    728 ;C:\MSX\MSXgl-1.4.1\engine/src/print.c:191: break;
    0000012C C3r93r01         [10]  729 	jp	00115$
                                    730 ;C:\MSX\MSXgl-1.4.1\engine/src/print.c:194: case VDP_MODE_TEXT2:		// 80 characters per line of text, character blinkable selection
    0000012F                        731 00105$:
                                    732 ;C:\MSX\MSXgl-1.4.1\engine/src/print.h:303: inline void Print_SetTabSize(u8 size) { PRINT_DATA.TabSize = size; }
    0000012F 21r04r00         [10]  733 	ld	hl, #(_g_PrintData + 4)
    00000132 36 03            [10]  734 	ld	(hl), #0x03
                                    735 ;C:\MSX\MSXgl-1.4.1\engine/src/print.c:196: PRINT_DATA.ScreenWidth = 80;
    00000134 21 50 00         [10]  736 	ld	hl, #0x0050
    00000137 22r1Br00         [16]  737 	ld	((_g_PrintData + 27)), hl
                                    738 ;C:\MSX\MSXgl-1.4.1\engine/src/print.c:197: break;
    0000013A C3r93r01         [10]  739 	jp	00115$
                                    740 ;C:\MSX\MSXgl-1.4.1\engine/src/print.c:205: case VDP_MODE_GRAPHIC3:		// GRAPHIC 2 which can use sprite mode 2
    0000013D                        741 00109$:
                                    742 ;C:\MSX\MSXgl-1.4.1\engine/src/print.h:303: inline void Print_SetTabSize(u8 size) { PRINT_DATA.TabSize = size; }
    0000013D 21r04r00         [10]  743 	ld	hl, #(_g_PrintData + 4)
    00000140 36 03            [10]  744 	ld	(hl), #0x03
                                    745 ;C:\MSX\MSXgl-1.4.1\engine/src/print.c:207: PRINT_DATA.ScreenWidth = 32;
    00000142 21 20 00         [10]  746 	ld	hl, #0x0020
    00000145 22r1Br00         [16]  747 	ld	((_g_PrintData + 27)), hl
                                    748 ;C:\MSX\MSXgl-1.4.1\engine/src/print.c:208: break;
    00000148 C3r93r01         [10]  749 	jp	00115$
                                    750 ;C:\MSX\MSXgl-1.4.1\engine/src/print.c:211: case VDP_MODE_GRAPHIC4:		// 256 x 212; 16 colours are available for each dot
    0000014B                        751 00110$:
                                    752 ;C:\MSX\MSXgl-1.4.1\engine/src/print.h:303: inline void Print_SetTabSize(u8 size) { PRINT_DATA.TabSize = size; }
    0000014B 21r04r00         [10]  753 	ld	hl, #(_g_PrintData + 4)
    0000014E 36 18            [10]  754 	ld	(hl), #0x18
                                    755 ;C:\MSX\MSXgl-1.4.1\engine/src/print.c:213: PRINT_DATA.ScreenWidth = 256;
    00000150 21 00 01         [10]  756 	ld	hl, #0x0100
    00000153 22r1Br00         [16]  757 	ld	((_g_PrintData + 27)), hl
                                    758 ;C:\MSX\MSXgl-1.4.1\engine/src/print.c:214: break;
    00000156 C3r93r01         [10]  759 	jp	00115$
                                    760 ;C:\MSX\MSXgl-1.4.1\engine/src/print.c:217: case VDP_MODE_GRAPHIC5:		// 512 x 212; 4 colours are available for each dot
    00000159                        761 00111$:
                                    762 ;C:\MSX\MSXgl-1.4.1\engine/src/print.h:303: inline void Print_SetTabSize(u8 size) { PRINT_DATA.TabSize = size; }
    00000159 21r04r00         [10]  763 	ld	hl, #(_g_PrintData + 4)
    0000015C 36 18            [10]  764 	ld	(hl), #0x18
                                    765 ;C:\MSX\MSXgl-1.4.1\engine/src/print.c:219: Print_SetColor(0x03, 0x0);
    0000015E 2E 00            [ 7]  766 	ld	l, #0x00
                                    767 ;	spillPairReg hl
                                    768 ;	spillPairReg hl
    00000160 3E 03            [ 7]  769 	ld	a, #0x03
    00000162 CDrBBr04         [17]  770 	call	_Print_SetColor
                                    771 ;C:\MSX\MSXgl-1.4.1\engine/src/print.c:220: PRINT_DATA.ScreenWidth = 512;
    00000165 21 00 02         [10]  772 	ld	hl, #0x0200
    00000168 22r1Br00         [16]  773 	ld	((_g_PrintData + 27)), hl
                                    774 ;C:\MSX\MSXgl-1.4.1\engine/src/print.c:221: break;
    0000016B C3r93r01         [10]  775 	jp	00115$
                                    776 ;C:\MSX\MSXgl-1.4.1\engine/src/print.c:224: case VDP_MODE_GRAPHIC6:		// 512 x 212; 16 colours are available for each dot
    0000016E                        777 00112$:
                                    778 ;C:\MSX\MSXgl-1.4.1\engine/src/print.h:303: inline void Print_SetTabSize(u8 size) { PRINT_DATA.TabSize = size; }
    0000016E 21r04r00         [10]  779 	ld	hl, #(_g_PrintData + 4)
    00000171 36 18            [10]  780 	ld	(hl), #0x18
                                    781 ;C:\MSX\MSXgl-1.4.1\engine/src/print.c:226: PRINT_DATA.ScreenWidth = 512;
    00000173 21 00 02         [10]  782 	ld	hl, #0x0200
    00000176 22r1Br00         [16]  783 	ld	((_g_PrintData + 27)), hl
                                    784 ;C:\MSX\MSXgl-1.4.1\engine/src/print.c:227: break;
    00000179 C3r93r01         [10]  785 	jp	00115$
                                    786 ;C:\MSX\MSXgl-1.4.1\engine/src/print.c:230: case VDP_MODE_GRAPHIC7:		// 256 x 212; 256 colours are available for each dot
    0000017C                        787 00113$:
                                    788 ;C:\MSX\MSXgl-1.4.1\engine/src/print.h:303: inline void Print_SetTabSize(u8 size) { PRINT_DATA.TabSize = size; }
    0000017C 21r04r00         [10]  789 	ld	hl, #(_g_PrintData + 4)
    0000017F 36 18            [10]  790 	ld	(hl), #0x18
                                    791 ;C:\MSX\MSXgl-1.4.1\engine/src/print.c:232: Print_SetColor(0xFF, 0x0);
    00000181 2E 00            [ 7]  792 	ld	l, #0x00
                                    793 ;	spillPairReg hl
                                    794 ;	spillPairReg hl
    00000183 3E FF            [ 7]  795 	ld	a, #0xff
    00000185 CDrBBr04         [17]  796 	call	_Print_SetColor
                                    797 ;C:\MSX\MSXgl-1.4.1\engine/src/print.c:233: PRINT_DATA.ScreenWidth = 256;
    00000188 21 00 01         [10]  798 	ld	hl, #0x0100
    0000018B 22r1Br00         [16]  799 	ld	((_g_PrintData + 27)), hl
                                    800 ;C:\MSX\MSXgl-1.4.1\engine/src/print.c:234: break;
    0000018E C3r93r01         [10]  801 	jp	00115$
                                    802 ;C:\MSX\MSXgl-1.4.1\engine/src/print.c:236: default:
    00000191                        803 00114$:
                                    804 ;C:\MSX\MSXgl-1.4.1\engine/src/print.c:238: return FALSE;
    00000191 AF               [ 4]  805 	xor	a, a
    00000192 C9               [10]  806 	ret
                                    807 ;C:\MSX\MSXgl-1.4.1\engine/src/print.c:239: }
    00000193                        808 00115$:
                                    809 ;C:\MSX\MSXgl-1.4.1\engine/src/print.c:243: return TRUE;
    00000193 3E 01            [ 7]  810 	ld	a, #0x01
                                    811 ;C:\MSX\MSXgl-1.4.1\engine/src/print.c:244: }
    00000195 C9               [10]  812 	ret
                                    813 ;C:\MSX\MSXgl-1.4.1\engine/src/print.c:248: void Print_SetMode(u8 mode)
                                    814 ;	---------------------------------
                                    815 ; Function Print_SetMode
                                    816 ; ---------------------------------
    00000196                        817 _Print_SetMode::
    00000196 4F               [ 4]  818 	ld	c, a
                                    819 ;C:\MSX\MSXgl-1.4.1\engine/src/print.c:250: PRINT_DATA.SourceMode = mode;
    00000197 21r1Ar00         [10]  820 	ld	hl, #_g_PrintData + 26
    0000019A ED 67            [18]  821 	rrd
    0000019C 79               [ 4]  822 	ld	a, c
    0000019D ED 6F            [18]  823 	rld
                                    824 ;C:\MSX\MSXgl-1.4.1\engine/src/print.c:252: switch (PRINT_DATA.SourceMode)
    0000019F 7E               [ 7]  825 	ld	a, (hl)
    000001A0 E6 0F            [ 7]  826 	and	a, #0x0f
    000001A2 4F               [ 4]  827 	ld	c, a
    000001A3 3E 05            [ 7]  828 	ld	a, #0x05
    000001A5 91               [ 4]  829 	sub	a, c
    000001A6 D8               [11]  830 	ret	C
    000001A7 06 00            [ 7]  831 	ld	b, #0x00
    000001A9 21rB0r01         [10]  832 	ld	hl, #00162$
    000001AC 09               [11]  833 	add	hl, bc
    000001AD 09               [11]  834 	add	hl, bc
    000001AE 09               [11]  835 	add	hl, bc
    000001AF E9               [ 4]  836 	jp	(hl)
    000001B0                        837 00162$:
    000001B0 C3rC2r01         [10]  838 	jp	00101$
    000001B3 C3rEBr01         [10]  839 	jp	00107$
    000001B6 C3rF2r01         [10]  840 	jp	00109$
    000001B9 C3rF2r01         [10]  841 	jp	00109$
    000001BC C3r12r02         [10]  842 	jp	00115$
    000001BF C3r19r02         [10]  843 	jp	00116$
                                    844 ;C:\MSX\MSXgl-1.4.1\engine/src/print.c:255: case PRINT_MODE_BITMAP:
    000001C2                        845 00101$:
                                    846 ;C:\MSX\MSXgl-1.4.1\engine/src/vdp.h:483: inline u8 VDP_GetMode() { return g_VDP_Data.Mode; }
    000001C2 3Ar00r00         [13]  847 	ld	a, (#_g_VDP_Data + 0)
                                    848 ;C:\MSX\MSXgl-1.4.1\engine/src/print.c:257: switch (VDP_GetMode()) // Screen mode specific initialization
    000001C5 FE 06            [ 7]  849 	cp	a, #0x06
    000001C7 28 14            [12]  850 	jr	Z, 00104$
    000001C9 FE 07            [ 7]  851 	cp	a, #0x07
    000001CB 28 09            [12]  852 	jr	Z, 00102$
    000001CD FE 08            [ 7]  853 	cp	a, #0x08
    000001CF 28 0C            [12]  854 	jr	Z, 00104$
    000001D1 D6 09            [ 7]  855 	sub	a, #0x09
    000001D3 28 0F            [12]  856 	jr	Z, 00105$
    000001D5 C9               [10]  857 	ret
                                    858 ;C:\MSX\MSXgl-1.4.1\engine/src/print.c:260: case VDP_MODE_GRAPHIC5:
    000001D6                        859 00102$:
                                    860 ;C:\MSX\MSXgl-1.4.1\engine/src/print.c:261: PRINT_DATA.DrawChar = DrawChar_2B;
    000001D6 21rB3r09         [10]  861 	ld	hl, #_DrawChar_2B
    000001D9 22r18r00         [16]  862 	ld	((_g_PrintData + 24)), hl
                                    863 ;C:\MSX\MSXgl-1.4.1\engine/src/print.c:262: break;
    000001DC C9               [10]  864 	ret
                                    865 ;C:\MSX\MSXgl-1.4.1\engine/src/print.c:266: case VDP_MODE_GRAPHIC6:
    000001DD                        866 00104$:
                                    867 ;C:\MSX\MSXgl-1.4.1\engine/src/print.c:267: PRINT_DATA.DrawChar = DrawChar_4B;
    000001DD 21rBBr08         [10]  868 	ld	hl, #_DrawChar_4B
    000001E0 22r18r00         [16]  869 	ld	((_g_PrintData + 24)), hl
                                    870 ;C:\MSX\MSXgl-1.4.1\engine/src/print.c:268: break;
    000001E3 C9               [10]  871 	ret
                                    872 ;C:\MSX\MSXgl-1.4.1\engine/src/print.c:271: case VDP_MODE_GRAPHIC7:
    000001E4                        873 00105$:
                                    874 ;C:\MSX\MSXgl-1.4.1\engine/src/print.c:272: PRINT_DATA.DrawChar = DrawChar_8B; 
    000001E4 21r93r07         [10]  875 	ld	hl, #_DrawChar_8B
    000001E7 22r18r00         [16]  876 	ld	((_g_PrintData + 24)), hl
                                    877 ;C:\MSX\MSXgl-1.4.1\engine/src/print.c:276: break;
    000001EA C9               [10]  878 	ret
                                    879 ;C:\MSX\MSXgl-1.4.1\engine/src/print.c:279: case PRINT_MODE_BITMAP_TRANS:
    000001EB                        880 00107$:
                                    881 ;C:\MSX\MSXgl-1.4.1\engine/src/print.c:281: PRINT_DATA.DrawChar = DrawChar_Trans;
    000001EB 21r89r0A         [10]  882 	ld	hl, #_DrawChar_Trans
    000001EE 22r18r00         [16]  883 	ld	((_g_PrintData + 24)), hl
                                    884 ;C:\MSX\MSXgl-1.4.1\engine/src/print.c:282: break;
    000001F1 C9               [10]  885 	ret
                                    886 ;C:\MSX\MSXgl-1.4.1\engine/src/print.c:288: case PRINT_MODE_BITMAP_VRAM_TRANS:
    000001F2                        887 00109$:
                                    888 ;C:\MSX\MSXgl-1.4.1\engine/src/vdp.h:483: inline u8 VDP_GetMode() { return g_VDP_Data.Mode; }
    000001F2 3Ar00r00         [13]  889 	ld	a, (#_g_VDP_Data + 0)
                                    890 ;C:\MSX\MSXgl-1.4.1\engine/src/print.c:290: switch (VDP_GetMode()) // Screen mode specific initialization
    000001F5 FE 06            [ 7]  891 	cp	a, #0x06
    000001F7 28 0B            [12]  892 	jr	Z, 00111$
    000001F9 FE 07            [ 7]  893 	cp	a, #0x07
    000001FB 28 0E            [12]  894 	jr	Z, 00113$
    000001FD FE 08            [ 7]  895 	cp	a, #0x08
    000001FF 28 0A            [12]  896 	jr	Z, 00113$
    00000201 D6 09            [ 7]  897 	sub	a, #0x09
    00000203 C0               [11]  898 	ret	NZ
                                    899 ;C:\MSX\MSXgl-1.4.1\engine/src/print.c:294: case VDP_MODE_GRAPHIC7:
    00000204                        900 00111$:
                                    901 ;C:\MSX\MSXgl-1.4.1\engine/src/print.c:295: PRINT_DATA.DrawChar = DrawChar_VRAM256;
    00000204 21r23r0F         [10]  902 	ld	hl, #_DrawChar_VRAM256
    00000207 22r18r00         [16]  903 	ld	((_g_PrintData + 24)), hl
                                    904 ;C:\MSX\MSXgl-1.4.1\engine/src/print.c:296: break;
    0000020A C9               [10]  905 	ret
                                    906 ;C:\MSX\MSXgl-1.4.1\engine/src/print.c:300: case VDP_MODE_GRAPHIC6:
    0000020B                        907 00113$:
                                    908 ;C:\MSX\MSXgl-1.4.1\engine/src/print.c:301: PRINT_DATA.DrawChar = DrawChar_VRAM512;
    0000020B 21r5Fr10         [10]  909 	ld	hl, #_DrawChar_VRAM512
    0000020E 22r18r00         [16]  910 	ld	((_g_PrintData + 24)), hl
                                    911 ;C:\MSX\MSXgl-1.4.1\engine/src/print.c:305: break;
    00000211 C9               [10]  912 	ret
                                    913 ;C:\MSX\MSXgl-1.4.1\engine/src/print.c:309: case PRINT_MODE_SPRITE:
    00000212                        914 00115$:
                                    915 ;C:\MSX\MSXgl-1.4.1\engine/src/print.c:311: PRINT_DATA.DrawChar = DrawChar_Sprite;
    00000212 21rCDr16         [10]  916 	ld	hl, #_DrawChar_Sprite
    00000215 22r18r00         [16]  917 	ld	((_g_PrintData + 24)), hl
                                    918 ;C:\MSX\MSXgl-1.4.1\engine/src/print.c:312: break;
    00000218 C9               [10]  919 	ret
                                    920 ;C:\MSX\MSXgl-1.4.1\engine/src/print.c:316: case PRINT_MODE_TEXT:
    00000219                        921 00116$:
                                    922 ;C:\MSX\MSXgl-1.4.1\engine/src/print.c:318: PRINT_DATA.DrawChar = DrawChar_Layout;
    00000219 21r28r15         [10]  923 	ld	hl, #_DrawChar_Layout
    0000021C 22r18r00         [16]  924 	ld	((_g_PrintData + 24)), hl
                                    925 ;C:\MSX\MSXgl-1.4.1\engine/src/print.c:322: };
                                    926 ;C:\MSX\MSXgl-1.4.1\engine/src/print.c:323: }
    0000021F C9               [10]  927 	ret
                                    928 ;C:\MSX\MSXgl-1.4.1\engine/src/print.c:328: void Print_SetFont(const u8* font)
                                    929 ;	---------------------------------
                                    930 ; Function Print_SetFont
                                    931 ; ---------------------------------
    00000220                        932 _Print_SetFont::
    00000220 DD E5            [15]  933 	push	ix
    00000222 DD 21 00 00      [14]  934 	ld	ix,#0
    00000226 DD 39            [15]  935 	add	ix,sp
    00000228 F5               [11]  936 	push	af
    00000229 F5               [11]  937 	push	af
    0000022A EB               [ 4]  938 	ex	de, hl
                                    939 ;C:\MSX\MSXgl-1.4.1\engine/src/print.c:330: if (font == NULL) // Use Bios font (if any)
    0000022B 7A               [ 4]  940 	ld	a, d
    0000022C B3               [ 4]  941 	or	a, e
    0000022D 20 42            [12]  942 	jr	NZ, 00102$
                                    943 ;C:\MSX\MSXgl-1.4.1\engine/src/print.c:331: Print_SetFontEx(8, 8, 6, 8, 1, 255, (const u8*)g_CGTABL + 8);
    0000022F ED 4B 04 00      [20]  944 	ld	bc, (_g_CGTABL)
    00000233 21 08 00         [10]  945 	ld	hl, #0x0008
    00000236 09               [11]  946 	add	hl, bc
    00000237 EB               [ 4]  947 	ex	de, hl
                                    948 ;C:\MSX\MSXgl-1.4.1\engine/src/print.h:242: PRINT_DATA.PatternX     = patternX;
    00000238 21r00r00         [10]  949 	ld	hl, #_g_PrintData
    0000023B 36 08            [10]  950 	ld	(hl), #0x08
                                    951 ;C:\MSX\MSXgl-1.4.1\engine/src/print.h:243: PRINT_DATA.PatternY     = patternY;
    0000023D 01r01r00         [10]  952 	ld	bc, #_g_PrintData + 1
    00000240 3E 08            [ 7]  953 	ld	a, #0x08
    00000242 02               [ 7]  954 	ld	(bc), a
                                    955 ;C:\MSX\MSXgl-1.4.1\engine/src/print.h:244: PRINT_DATA.UnitX        = sizeX;
    00000243 21r02r00         [10]  956 	ld	hl, #(_g_PrintData + 2)
    00000246 36 06            [10]  957 	ld	(hl), #0x06
                                    958 ;C:\MSX\MSXgl-1.4.1\engine/src/print.h:245: PRINT_DATA.UnitY        = sizeY;
    00000248 21r03r00         [10]  959 	ld	hl, #(_g_PrintData + 3)
    0000024B 36 08            [10]  960 	ld	(hl), #0x08
                                    961 ;C:\MSX\MSXgl-1.4.1\engine/src/print.h:246: PRINT_DATA.CharFirst    = firstChr;
    0000024D 21r15r00         [10]  962 	ld	hl, #(_g_PrintData + 21)
    00000250 36 01            [10]  963 	ld	(hl), #0x01
                                    964 ;C:\MSX\MSXgl-1.4.1\engine/src/print.h:247: PRINT_DATA.CharLast     = lastChr;
    00000252 21r16r00         [10]  965 	ld	hl, #(_g_PrintData + 22)
    00000255 36 FF            [10]  966 	ld	(hl), #0xff
                                    967 ;C:\MSX\MSXgl-1.4.1\engine/src/print.h:248: PRINT_DATA.CharCount    = lastChr - firstChr + 1;
    00000257 21r17r00         [10]  968 	ld	hl, #(_g_PrintData + 23)
    0000025A 36 FF            [10]  969 	ld	(hl), #0xff
                                    970 ;C:\MSX\MSXgl-1.4.1\engine/src/print.h:249: PRINT_DATA.FontPatterns = patterns;
    0000025C ED 53r1Dr00      [20]  971 	ld	((_g_PrintData + 29)), de
                                    972 ;C:\MSX\MSXgl-1.4.1\engine/src/print.h:250: PRINT_DATA.FontAddr     = PRINT_DATA.FontPatterns - (firstChr * PRINT_DATA.PatternY); // pre-compute address of the virtual index 0 character (used to quick drawing in PutChar_GX functions)
    00000260 0A               [ 7]  973 	ld	a, (bc)
    00000261 4F               [ 4]  974 	ld	c, a
    00000262 06 00            [ 7]  975 	ld	b, #0x00
    00000264 7B               [ 4]  976 	ld	a, e
    00000265 91               [ 4]  977 	sub	a, c
    00000266 4F               [ 4]  978 	ld	c, a
    00000267 7A               [ 4]  979 	ld	a, d
    00000268 98               [ 4]  980 	sbc	a, b
    00000269 47               [ 4]  981 	ld	b, a
    0000026A ED 43r1Fr00      [20]  982 	ld	((_g_PrintData + 31)), bc
                                    983 ;C:\MSX\MSXgl-1.4.1\engine/src/print.c:331: Print_SetFontEx(8, 8, 6, 8, 1, 255, (const u8*)g_CGTABL + 8);
    0000026E C3rF5r02         [10]  984 	jp	00106$
    00000271                        985 00102$:
                                    986 ;C:\MSX\MSXgl-1.4.1\engine/src/print.c:333: Print_SetFontEx(font[0] >> 4, font[0] & 0x0F, font[1] >> 4, font[1] & 0x0F, font[2], font[3], font+4);
    00000271 21 04 00         [10]  987 	ld	hl, #0x0004
    00000274 19               [11]  988 	add	hl, de
    00000275 4D               [ 4]  989 	ld	c, l
    00000276 44               [ 4]  990 	ld	b, h
    00000277 6B               [ 4]  991 	ld	l, e
                                    992 ;	spillPairReg hl
                                    993 ;	spillPairReg hl
    00000278 62               [ 4]  994 	ld	h, d
                                    995 ;	spillPairReg hl
                                    996 ;	spillPairReg hl
    00000279 23               [ 6]  997 	inc	hl
    0000027A 23               [ 6]  998 	inc	hl
    0000027B 23               [ 6]  999 	inc	hl
    0000027C 7E               [ 7] 1000 	ld	a, (hl)
    0000027D DD 77 FC         [19] 1001 	ld	-4 (ix), a
    00000280 6B               [ 4] 1002 	ld	l, e
                                   1003 ;	spillPairReg hl
                                   1004 ;	spillPairReg hl
    00000281 62               [ 4] 1005 	ld	h, d
                                   1006 ;	spillPairReg hl
                                   1007 ;	spillPairReg hl
    00000282 23               [ 6] 1008 	inc	hl
    00000283 23               [ 6] 1009 	inc	hl
    00000284 7E               [ 7] 1010 	ld	a, (hl)
    00000285 DD 77 FD         [19] 1011 	ld	-3 (ix), a
    00000288 6B               [ 4] 1012 	ld	l, e
                                   1013 ;	spillPairReg hl
                                   1014 ;	spillPairReg hl
    00000289 62               [ 4] 1015 	ld	h, d
                                   1016 ;	spillPairReg hl
                                   1017 ;	spillPairReg hl
    0000028A 23               [ 6] 1018 	inc	hl
    0000028B 7E               [ 7] 1019 	ld	a, (hl)
    0000028C F5               [11] 1020 	push	af
    0000028D E6 0F            [ 7] 1021 	and	a, #0x0f
    0000028F DD 77 FE         [19] 1022 	ld	-2 (ix), a
    00000292 F1               [10] 1023 	pop	af
    00000293 07               [ 4] 1024 	rlca
    00000294 07               [ 4] 1025 	rlca
    00000295 07               [ 4] 1026 	rlca
    00000296 07               [ 4] 1027 	rlca
    00000297 E6 0F            [ 7] 1028 	and	a, #0x0f
    00000299 DD 77 FF         [19] 1029 	ld	-1 (ix), a
    0000029C 1A               [ 7] 1030 	ld	a, (de)
    0000029D F5               [11] 1031 	push	af
    0000029E E6 0F            [ 7] 1032 	and	a, #0x0f
    000002A0 5F               [ 4] 1033 	ld	e, a
    000002A1 F1               [10] 1034 	pop	af
    000002A2 07               [ 4] 1035 	rlca
    000002A3 07               [ 4] 1036 	rlca
    000002A4 07               [ 4] 1037 	rlca
    000002A5 07               [ 4] 1038 	rlca
    000002A6 E6 0F            [ 7] 1039 	and	a, #0x0f
    000002A8 57               [ 4] 1040 	ld	d, a
                                   1041 ;C:\MSX\MSXgl-1.4.1\engine/src/print.h:242: PRINT_DATA.PatternX     = patternX;
    000002A9 21r00r00         [10] 1042 	ld	hl, #_g_PrintData
    000002AC 72               [ 7] 1043 	ld	(hl), d
                                   1044 ;C:\MSX\MSXgl-1.4.1\engine/src/print.h:243: PRINT_DATA.PatternY     = patternY;
    000002AD 21r01r00         [10] 1045 	ld	hl, #(_g_PrintData + 1)
    000002B0 73               [ 7] 1046 	ld	(hl), e
                                   1047 ;C:\MSX\MSXgl-1.4.1\engine/src/print.h:244: PRINT_DATA.UnitX        = sizeX;
    000002B1 21r02r00         [10] 1048 	ld	hl, #(_g_PrintData + 2)
    000002B4 DD 7E FF         [19] 1049 	ld	a, -1 (ix)
    000002B7 77               [ 7] 1050 	ld	(hl), a
                                   1051 ;C:\MSX\MSXgl-1.4.1\engine/src/print.h:245: PRINT_DATA.UnitY        = sizeY;
    000002B8 21r03r00         [10] 1052 	ld	hl, #(_g_PrintData + 3)
    000002BB DD 7E FE         [19] 1053 	ld	a, -2 (ix)
    000002BE 77               [ 7] 1054 	ld	(hl), a
                                   1055 ;C:\MSX\MSXgl-1.4.1\engine/src/print.h:246: PRINT_DATA.CharFirst    = firstChr;
    000002BF 21r15r00         [10] 1056 	ld	hl, #(_g_PrintData + 21)
    000002C2 DD 7E FD         [19] 1057 	ld	a, -3 (ix)
    000002C5 77               [ 7] 1058 	ld	(hl), a
                                   1059 ;C:\MSX\MSXgl-1.4.1\engine/src/print.h:247: PRINT_DATA.CharLast     = lastChr;
    000002C6 21r16r00         [10] 1060 	ld	hl, #(_g_PrintData + 22)
    000002C9 DD 7E FC         [19] 1061 	ld	a, -4 (ix)
    000002CC 77               [ 7] 1062 	ld	(hl), a
                                   1063 ;C:\MSX\MSXgl-1.4.1\engine/src/print.h:248: PRINT_DATA.CharCount    = lastChr - firstChr + 1;
    000002CD DD 7E FC         [19] 1064 	ld	a, -4 (ix)
    000002D0 DD 96 FD         [19] 1065 	sub	a, -3 (ix)
    000002D3 3C               [ 4] 1066 	inc	a
    000002D4 32r17r00         [13] 1067 	ld	(#(_g_PrintData + 23)),a
                                   1068 ;C:\MSX\MSXgl-1.4.1\engine/src/print.h:249: PRINT_DATA.FontPatterns = patterns;
    000002D7 ED 43r1Dr00      [20] 1069 	ld	((_g_PrintData + 29)), bc
                                   1070 ;C:\MSX\MSXgl-1.4.1\engine/src/print.h:250: PRINT_DATA.FontAddr     = PRINT_DATA.FontPatterns - (firstChr * PRINT_DATA.PatternY); // pre-compute address of the virtual index 0 character (used to quick drawing in PutChar_GX functions)
    000002DB C5               [11] 1071 	push	bc
    000002DC DD 66 FD         [19] 1072 	ld	h, -3 (ix)
                                   1073 ;	spillPairReg hl
                                   1074 ;	spillPairReg hl
    000002DF 2E 00            [ 7] 1075 	ld	l, #0x00
    000002E1 55               [ 4] 1076 	ld	d, l
    000002E2 06 08            [ 7] 1077 	ld	b, #0x08
    000002E4                       1078 00113$:
    000002E4 29               [11] 1079 	add	hl, hl
    000002E5 30 01            [12] 1080 	jr	NC, 00114$
    000002E7 19               [11] 1081 	add	hl, de
    000002E8                       1082 00114$:
    000002E8 10 FA            [13] 1083 	djnz	00113$
    000002EA C1               [10] 1084 	pop	bc
    000002EB 79               [ 4] 1085 	ld	a, c
    000002EC 95               [ 4] 1086 	sub	a, l
    000002ED 4F               [ 4] 1087 	ld	c, a
    000002EE 78               [ 4] 1088 	ld	a, b
    000002EF 9C               [ 4] 1089 	sbc	a, h
    000002F0 47               [ 4] 1090 	ld	b, a
    000002F1 ED 43r1Fr00      [20] 1091 	ld	((_g_PrintData + 31)), bc
                                   1092 ;C:\MSX\MSXgl-1.4.1\engine/src/print.c:333: Print_SetFontEx(font[0] >> 4, font[0] & 0x0F, font[1] >> 4, font[1] & 0x0F, font[2], font[3], font+4);
    000002F5                       1093 00106$:
                                   1094 ;C:\MSX\MSXgl-1.4.1\engine/src/print.c:334: }
    000002F5 DD F9            [10] 1095 	ld	sp, ix
    000002F7 DD E1            [14] 1096 	pop	ix
    000002F9 C9               [10] 1097 	ret
                                   1098 ;C:\MSX\MSXgl-1.4.1\engine/src/print.c:339: void Print_InitColorBuffer(u8 t, u8 b)
                                   1099 ;	---------------------------------
                                   1100 ; Function Print_InitColorBuffer
                                   1101 ; ---------------------------------
    000002FA                       1102 _Print_InitColorBuffer::
    000002FA DD E5            [15] 1103 	push	ix
    000002FC DD 21 00 00      [14] 1104 	ld	ix,#0
    00000300 DD 39            [15] 1105 	add	ix,sp
    00000302 FD 21 F8 FF      [14] 1106 	ld	iy, #-8
    00000306 FD 39            [15] 1107 	add	iy, sp
    00000308 FD F9            [10] 1108 	ld	sp, iy
    0000030A DD 77 FF         [19] 1109 	ld	-1 (ix), a
    0000030D DD 75 FE         [19] 1110 	ld	-2 (ix), l
                                   1111 ;C:\MSX\MSXgl-1.4.1\engine/src/vdp.h:483: inline u8 VDP_GetMode() { return g_VDP_Data.Mode; }
    00000310 3Ar00r00         [13] 1112 	ld	a, (#_g_VDP_Data + 0)
                                   1113 ;C:\MSX\MSXgl-1.4.1\engine/src/print.c:342: switch (VDP_GetMode())
    00000313 DD 77 FD         [19] 1114 	ld	-3 (ix), a
    00000316 D6 06            [ 7] 1115 	sub	a, #0x06
    00000318 28 19            [12] 1116 	jr	Z, 00102$
    0000031A DD 7E FD         [19] 1117 	ld	a, -3 (ix)
    0000031D D6 07            [ 7] 1118 	sub	a, #0x07
    0000031F 28 62            [12] 1119 	jr	Z, 00103$
    00000321 DD 7E FD         [19] 1120 	ld	a, -3 (ix)
    00000324 D6 08            [ 7] 1121 	sub	a, #0x08
    00000326 28 0B            [12] 1122 	jr	Z, 00102$
    00000328 DD 7E FD         [19] 1123 	ld	a, -3 (ix)
    0000032B D6 09            [ 7] 1124 	sub	a, #0x09
    0000032D CAr7Er04         [10] 1125 	jp	Z,00104$
    00000330 C3rB6r04         [10] 1126 	jp	00107$
                                   1127 ;C:\MSX\MSXgl-1.4.1\engine/src/print.c:348: case VDP_MODE_GRAPHIC6:
    00000333                       1128 00102$:
                                   1129 ;C:\MSX\MSXgl-1.4.1\engine/src/print.c:351: PRINT_DATA.Buffer[0] = (b << 4) | b;	// [ 0, 0 ]
    00000333 DD 7E FE         [19] 1130 	ld	a, -2 (ix)
    00000336 DD 77 FD         [19] 1131 	ld	-3 (ix), a
    00000339 87               [ 4] 1132 	add	a, a
    0000033A 87               [ 4] 1133 	add	a, a
    0000033B 87               [ 4] 1134 	add	a, a
    0000033C 87               [ 4] 1135 	add	a, a
    0000033D DD 77 FD         [19] 1136 	ld	-3 (ix), a
    00000340 DD B6 FE         [19] 1137 	or	a, -2 (ix)
    00000343 DD 77 FC         [19] 1138 	ld	-4 (ix), a
    00000346 21r2Ar00         [10] 1139 	ld	hl, #(_g_PrintData + 42)
    00000349 DD 7E FC         [19] 1140 	ld	a, -4 (ix)
    0000034C 77               [ 7] 1141 	ld	(hl), a
                                   1142 ;C:\MSX\MSXgl-1.4.1\engine/src/print.c:352: PRINT_DATA.Buffer[1] = (b << 4) | t;	// [ 0, 1 ]
    0000034D DD 7E FD         [19] 1143 	ld	a, -3 (ix)
    00000350 DD B6 FF         [19] 1144 	or	a, -1 (ix)
    00000353 DD 77 FD         [19] 1145 	ld	-3 (ix), a
    00000356 21r2Br00         [10] 1146 	ld	hl, #(_g_PrintData + 43)
    00000359 DD 7E FD         [19] 1147 	ld	a, -3 (ix)
    0000035C 77               [ 7] 1148 	ld	(hl), a
                                   1149 ;C:\MSX\MSXgl-1.4.1\engine/src/print.c:353: PRINT_DATA.Buffer[2] = (t << 4) | b;	// [ 1, 0 ]
    0000035D DD 7E FF         [19] 1150 	ld	a, -1 (ix)
    00000360 DD 77 FD         [19] 1151 	ld	-3 (ix), a
    00000363 87               [ 4] 1152 	add	a, a
    00000364 87               [ 4] 1153 	add	a, a
    00000365 87               [ 4] 1154 	add	a, a
    00000366 87               [ 4] 1155 	add	a, a
    00000367 DD 77 FC         [19] 1156 	ld	-4 (ix), a
    0000036A DD B6 FE         [19] 1157 	or	a, -2 (ix)
    0000036D DD 77 FD         [19] 1158 	ld	-3 (ix), a
    00000370 21r2Cr00         [10] 1159 	ld	hl, #(_g_PrintData + 44)
    00000373 DD 7E FD         [19] 1160 	ld	a, -3 (ix)
    00000376 77               [ 7] 1161 	ld	(hl), a
                                   1162 ;C:\MSX\MSXgl-1.4.1\engine/src/print.c:354: PRINT_DATA.Buffer[3] = (t << 4) | t;	// [ 1, 1 ]
    00000377 DD 7E FC         [19] 1163 	ld	a, -4 (ix)
    0000037A DD B6 FF         [19] 1164 	or	a, -1 (ix)
    0000037D 32r2Dr00         [13] 1165 	ld	(#(_g_PrintData + 45)),a
                                   1166 ;C:\MSX\MSXgl-1.4.1\engine/src/print.c:355: break;
    00000380 C3rB6r04         [10] 1167 	jp	00107$
                                   1168 ;C:\MSX\MSXgl-1.4.1\engine/src/print.c:358: case VDP_MODE_GRAPHIC5:
    00000383                       1169 00103$:
                                   1170 ;C:\MSX\MSXgl-1.4.1\engine/src/print.c:359: PRINT_DATA.Buffer[ 0] = (b << 6) | (b << 4) | (b << 2) | b;	// [ 0, 0, 0, 0 ]
    00000383 DD 7E FE         [19] 1171 	ld	a, -2 (ix)
    00000386 DD 77 FD         [19] 1172 	ld	-3 (ix), a
    00000389 0F               [ 4] 1173 	rrca
    0000038A 0F               [ 4] 1174 	rrca
    0000038B E6 C0            [ 7] 1175 	and	a, #0xc0
    0000038D DD 77 F8         [19] 1176 	ld	-8 (ix), a
    00000390 DD 7E FD         [19] 1177 	ld	a, -3 (ix)
    00000393 87               [ 4] 1178 	add	a, a
    00000394 87               [ 4] 1179 	add	a, a
    00000395 87               [ 4] 1180 	add	a, a
    00000396 87               [ 4] 1181 	add	a, a
    00000397 DD 77 F9         [19] 1182 	ld	-7 (ix), a
    0000039A DD 7E F8         [19] 1183 	ld	a, -8 (ix)
    0000039D DD B6 F9         [19] 1184 	or	a, -7 (ix)
    000003A0 DD 77 FA         [19] 1185 	ld	-6 (ix), a
    000003A3 DD 7E FD         [19] 1186 	ld	a, -3 (ix)
    000003A6 87               [ 4] 1187 	add	a, a
    000003A7 87               [ 4] 1188 	add	a, a
    000003A8 DD 77 FB         [19] 1189 	ld	-5 (ix), a
    000003AB DD 7E FA         [19] 1190 	ld	a, -6 (ix)
    000003AE DD B6 FB         [19] 1191 	or	a, -5 (ix)
    000003B1 DD 77 FC         [19] 1192 	ld	-4 (ix), a
    000003B4 DD B6 FE         [19] 1193 	or	a, -2 (ix)
    000003B7 DD 77 FD         [19] 1194 	ld	-3 (ix), a
    000003BA 21r2Ar00         [10] 1195 	ld	hl, #(_g_PrintData + 42)
    000003BD DD 7E FD         [19] 1196 	ld	a, -3 (ix)
    000003C0 77               [ 7] 1197 	ld	(hl), a
                                   1198 ;C:\MSX\MSXgl-1.4.1\engine/src/print.c:360: PRINT_DATA.Buffer[ 1] = (b << 6) | (b << 4) | (b << 2) | t;	// [ 0, 0, 0, 1 ]
    000003C1 DD 7E FC         [19] 1199 	ld	a, -4 (ix)
    000003C4 DD B6 FF         [19] 1200 	or	a, -1 (ix)
    000003C7 32r2Br00         [13] 1201 	ld	(#(_g_PrintData + 43)),a
                                   1202 ;C:\MSX\MSXgl-1.4.1\engine/src/print.c:361: PRINT_DATA.Buffer[ 2] = (b << 6) | (b << 4) | (t << 2) | b;	// [ 0, 0, 1, 0 ]
    000003CA DD 4E FF         [19] 1203 	ld	c, -1 (ix)
    000003CD 79               [ 4] 1204 	ld	a, c
    000003CE 87               [ 4] 1205 	add	a, a
    000003CF 87               [ 4] 1206 	add	a, a
    000003D0 5F               [ 4] 1207 	ld	e, a
    000003D1 DD 7E FA         [19] 1208 	ld	a, -6 (ix)
    000003D4 B3               [ 4] 1209 	or	a, e
    000003D5 47               [ 4] 1210 	ld	b, a
    000003D6 DD B6 FE         [19] 1211 	or	a, -2 (ix)
    000003D9 32r2Cr00         [13] 1212 	ld	(#(_g_PrintData + 44)),a
                                   1213 ;C:\MSX\MSXgl-1.4.1\engine/src/print.c:362: PRINT_DATA.Buffer[ 3] = (b << 6) | (b << 4) | (t << 2) | t;	// [ 0, 0, 1, 1 ]
    000003DC 21r2Dr00         [10] 1214 	ld	hl, #_g_PrintData + 45
    000003DF 78               [ 4] 1215 	ld	a, b
    000003E0 DD B6 FF         [19] 1216 	or	a, -1 (ix)
    000003E3 77               [ 7] 1217 	ld	(hl), a
                                   1218 ;C:\MSX\MSXgl-1.4.1\engine/src/print.c:363: PRINT_DATA.Buffer[ 4] = (b << 6) | (t << 4) | (b << 2) | b;	// [ 0, 1, 0, 0 ]
    000003E4 79               [ 4] 1219 	ld	a, c
    000003E5 87               [ 4] 1220 	add	a, a
    000003E6 87               [ 4] 1221 	add	a, a
    000003E7 87               [ 4] 1222 	add	a, a
    000003E8 87               [ 4] 1223 	add	a, a
    000003E9 DD 77 FC         [19] 1224 	ld	-4 (ix), a
    000003EC DD 7E F8         [19] 1225 	ld	a, -8 (ix)
    000003EF DD B6 FC         [19] 1226 	or	a, -4 (ix)
    000003F2 DD 77 FD         [19] 1227 	ld	-3 (ix), a
    000003F5 DD B6 FB         [19] 1228 	or	a, -5 (ix)
    000003F8 DD 77 FA         [19] 1229 	ld	-6 (ix), a
    000003FB DD B6 FE         [19] 1230 	or	a, -2 (ix)
    000003FE 32r2Er00         [13] 1231 	ld	(#(_g_PrintData + 46)),a
                                   1232 ;C:\MSX\MSXgl-1.4.1\engine/src/print.c:364: PRINT_DATA.Buffer[ 5] = (b << 6) | (t << 4) | (b << 2) | t;	// [ 0, 1, 0, 1 ]
    00000401 21r2Fr00         [10] 1233 	ld	hl, #_g_PrintData + 47
    00000404 DD 7E FA         [19] 1234 	ld	a, -6 (ix)
    00000407 DD B6 FF         [19] 1235 	or	a, -1 (ix)
    0000040A 77               [ 7] 1236 	ld	(hl), a
                                   1237 ;C:\MSX\MSXgl-1.4.1\engine/src/print.c:365: PRINT_DATA.Buffer[ 6] = (b << 6) | (t << 4) | (t << 2) | b;	// [ 0, 1, 1, 0 ]
    0000040B 21r30r00         [10] 1238 	ld	hl, #_g_PrintData + 48
    0000040E DD 7E FD         [19] 1239 	ld	a, -3 (ix)
    00000411 B3               [ 4] 1240 	or	a, e
    00000412 47               [ 4] 1241 	ld	b, a
    00000413 DD B6 FE         [19] 1242 	or	a, -2 (ix)
    00000416 77               [ 7] 1243 	ld	(hl), a
                                   1244 ;C:\MSX\MSXgl-1.4.1\engine/src/print.c:366: PRINT_DATA.Buffer[ 7] = (b << 6) | (t << 4) | (t << 2) | t;	// [ 0, 1, 1, 1 ]
    00000417 21r31r00         [10] 1245 	ld	hl, #_g_PrintData + 49
    0000041A 78               [ 4] 1246 	ld	a, b
    0000041B DD B6 FF         [19] 1247 	or	a, -1 (ix)
    0000041E 77               [ 7] 1248 	ld	(hl), a
                                   1249 ;C:\MSX\MSXgl-1.4.1\engine/src/print.c:367: PRINT_DATA.Buffer[ 8] = (t << 6) | (b << 4) | (b << 2) | b;	// [ 1, 0, 0, 0 ]
    0000041F 79               [ 4] 1250 	ld	a, c
    00000420 0F               [ 4] 1251 	rrca
    00000421 0F               [ 4] 1252 	rrca
    00000422 E6 C0            [ 7] 1253 	and	a, #0xc0
    00000424 4F               [ 4] 1254 	ld	c, a
    00000425 DD B6 F9         [19] 1255 	or	a, -7 (ix)
    00000428 47               [ 4] 1256 	ld	b, a
    00000429 DD B6 FB         [19] 1257 	or	a, -5 (ix)
    0000042C DD 77 FD         [19] 1258 	ld	-3 (ix), a
    0000042F DD B6 FE         [19] 1259 	or	a, -2 (ix)
    00000432 32r32r00         [13] 1260 	ld	(#(_g_PrintData + 50)),a
                                   1261 ;C:\MSX\MSXgl-1.4.1\engine/src/print.c:368: PRINT_DATA.Buffer[ 9] = (t << 6) | (b << 4) | (b << 2) | t;	// [ 1, 0, 0, 1 ]
    00000435 21r33r00         [10] 1262 	ld	hl, #_g_PrintData + 51
    00000438 DD 7E FD         [19] 1263 	ld	a, -3 (ix)
    0000043B DD B6 FF         [19] 1264 	or	a, -1 (ix)
    0000043E 77               [ 7] 1265 	ld	(hl), a
                                   1266 ;C:\MSX\MSXgl-1.4.1\engine/src/print.c:369: PRINT_DATA.Buffer[10] = (t << 6) | (b << 4) | (t << 2) | b;	// [ 1, 0, 1, 0 ]
    0000043F 21r34r00         [10] 1267 	ld	hl, #_g_PrintData + 52
    00000442 78               [ 4] 1268 	ld	a, b
    00000443 B3               [ 4] 1269 	or	a, e
    00000444 47               [ 4] 1270 	ld	b, a
    00000445 DD B6 FE         [19] 1271 	or	a, -2 (ix)
    00000448 77               [ 7] 1272 	ld	(hl), a
                                   1273 ;C:\MSX\MSXgl-1.4.1\engine/src/print.c:370: PRINT_DATA.Buffer[11] = (t << 6) | (b << 4) | (t << 2) | t;	// [ 1, 0, 1, 1 ]
    00000449 21r35r00         [10] 1274 	ld	hl, #_g_PrintData + 53
    0000044C 78               [ 4] 1275 	ld	a, b
    0000044D DD B6 FF         [19] 1276 	or	a, -1 (ix)
    00000450 77               [ 7] 1277 	ld	(hl), a
                                   1278 ;C:\MSX\MSXgl-1.4.1\engine/src/print.c:371: PRINT_DATA.Buffer[12] = (t << 6) | (t << 4) | (b << 2) | b;	// [ 1, 1, 0, 0 ]
    00000451 21r36r00         [10] 1279 	ld	hl, #_g_PrintData + 54
    00000454 79               [ 4] 1280 	ld	a, c
    00000455 DD B6 FC         [19] 1281 	or	a, -4 (ix)
    00000458 57               [ 4] 1282 	ld	d, a
    00000459 DD B6 FB         [19] 1283 	or	a, -5 (ix)
    0000045C 4F               [ 4] 1284 	ld	c, a
    0000045D DD B6 FE         [19] 1285 	or	a, -2 (ix)
    00000460 77               [ 7] 1286 	ld	(hl), a
                                   1287 ;C:\MSX\MSXgl-1.4.1\engine/src/print.c:372: PRINT_DATA.Buffer[13] = (t << 6) | (t << 4) | (b << 2) | t;	// [ 1, 1, 0, 1 ]
    00000461 21r37r00         [10] 1288 	ld	hl, #_g_PrintData + 55
    00000464 79               [ 4] 1289 	ld	a, c
    00000465 DD B6 FF         [19] 1290 	or	a, -1 (ix)
    00000468 77               [ 7] 1291 	ld	(hl), a
                                   1292 ;C:\MSX\MSXgl-1.4.1\engine/src/print.c:373: PRINT_DATA.Buffer[14] = (t << 6) | (t << 4) | (t << 2) | b;	// [ 1, 1, 1, 0 ]
    00000469 01r38r00         [10] 1293 	ld	bc, #_g_PrintData + 56
    0000046C 7B               [ 4] 1294 	ld	a, e
    0000046D B2               [ 4] 1295 	or	a, d
    0000046E 5F               [ 4] 1296 	ld	e, a
    0000046F DD B6 FE         [19] 1297 	or	a, -2 (ix)
    00000472 02               [ 7] 1298 	ld	(bc), a
                                   1299 ;C:\MSX\MSXgl-1.4.1\engine/src/print.c:374: PRINT_DATA.Buffer[15] = (t << 6) | (t << 4) | (t << 2) | t;	// [ 1, 1, 1, 1 ]
    00000473 01r39r00         [10] 1300 	ld	bc, #_g_PrintData + 57
    00000476 7B               [ 4] 1301 	ld	a, e
    00000477 DD B6 FF         [19] 1302 	or	a, -1 (ix)
    0000047A 02               [ 7] 1303 	ld	(bc), a
                                   1304 ;C:\MSX\MSXgl-1.4.1\engine/src/print.c:375: break;
    0000047B C3rB6r04         [10] 1305 	jp	00107$
                                   1306 ;C:\MSX\MSXgl-1.4.1\engine/src/print.c:378: case VDP_MODE_GRAPHIC7:
    0000047E                       1307 00104$:
                                   1308 ;C:\MSX\MSXgl-1.4.1\engine/src/print.c:379: PRINT_DATA.Buffer[0] = b;	// [ 0, 0 ]
    0000047E 21r2Ar00         [10] 1309 	ld	hl, #(_g_PrintData + 42)
    00000481 DD 7E FE         [19] 1310 	ld	a, -2 (ix)
    00000484 77               [ 7] 1311 	ld	(hl), a
                                   1312 ;C:\MSX\MSXgl-1.4.1\engine/src/print.c:380: PRINT_DATA.Buffer[1] = b;
    00000485 21r2Br00         [10] 1313 	ld	hl, #(_g_PrintData + 43)
    00000488 DD 7E FE         [19] 1314 	ld	a, -2 (ix)
    0000048B 77               [ 7] 1315 	ld	(hl), a
                                   1316 ;C:\MSX\MSXgl-1.4.1\engine/src/print.c:381: PRINT_DATA.Buffer[2] = b;	// [ 0, 1 ]
    0000048C 21r2Cr00         [10] 1317 	ld	hl, #(_g_PrintData + 44)
    0000048F DD 7E FE         [19] 1318 	ld	a, -2 (ix)
    00000492 77               [ 7] 1319 	ld	(hl), a
                                   1320 ;C:\MSX\MSXgl-1.4.1\engine/src/print.c:382: PRINT_DATA.Buffer[3] = t;
    00000493 21r2Dr00         [10] 1321 	ld	hl, #(_g_PrintData + 45)
    00000496 DD 7E FF         [19] 1322 	ld	a, -1 (ix)
    00000499 77               [ 7] 1323 	ld	(hl), a
                                   1324 ;C:\MSX\MSXgl-1.4.1\engine/src/print.c:383: PRINT_DATA.Buffer[4] = t;	// [ 1, 0 ]
    0000049A 21r2Er00         [10] 1325 	ld	hl, #(_g_PrintData + 46)
    0000049D DD 7E FF         [19] 1326 	ld	a, -1 (ix)
    000004A0 77               [ 7] 1327 	ld	(hl), a
                                   1328 ;C:\MSX\MSXgl-1.4.1\engine/src/print.c:384: PRINT_DATA.Buffer[5] = b;
    000004A1 21r2Fr00         [10] 1329 	ld	hl, #(_g_PrintData + 47)
    000004A4 DD 7E FE         [19] 1330 	ld	a, -2 (ix)
    000004A7 77               [ 7] 1331 	ld	(hl), a
                                   1332 ;C:\MSX\MSXgl-1.4.1\engine/src/print.c:385: PRINT_DATA.Buffer[6] = t;	// [ 1, 1 ]
    000004A8 21r30r00         [10] 1333 	ld	hl, #(_g_PrintData + 48)
    000004AB DD 7E FF         [19] 1334 	ld	a, -1 (ix)
    000004AE 77               [ 7] 1335 	ld	(hl), a
                                   1336 ;C:\MSX\MSXgl-1.4.1\engine/src/print.c:386: PRINT_DATA.Buffer[7] = t;
    000004AF 21r31r00         [10] 1337 	ld	hl, #(_g_PrintData + 49)
    000004B2 DD 7E FF         [19] 1338 	ld	a, -1 (ix)
    000004B5 77               [ 7] 1339 	ld	(hl), a
                                   1340 ;C:\MSX\MSXgl-1.4.1\engine/src/print.c:389: }	
    000004B6                       1341 00107$:
                                   1342 ;C:\MSX\MSXgl-1.4.1\engine/src/print.c:390: }
    000004B6 DD F9            [10] 1343 	ld	sp, ix
    000004B8 DD E1            [14] 1344 	pop	ix
    000004BA C9               [10] 1345 	ret
                                   1346 ;C:\MSX\MSXgl-1.4.1\engine/src/print.c:397: void Print_SetColor(u8 text, u8 bg)
                                   1347 ;	---------------------------------
                                   1348 ; Function Print_SetColor
                                   1349 ; ---------------------------------
    000004BB                       1350 _Print_SetColor::
    000004BB DD E5            [15] 1351 	push	ix
    000004BD DD 21 00 00      [14] 1352 	ld	ix,#0
    000004C1 DD 39            [15] 1353 	add	ix,sp
    000004C3 F5               [11] 1354 	push	af
    000004C4 4F               [ 4] 1355 	ld	c, a
    000004C5 DD 75 FF         [19] 1356 	ld	-1 (ix), l
                                   1357 ;C:\MSX\MSXgl-1.4.1\engine/src/vdp.h:483: inline u8 VDP_GetMode() { return g_VDP_Data.Mode; }
    000004C8 3Ar00r00         [13] 1358 	ld	a, (#_g_VDP_Data + 0)
    000004CB DD 77 FE         [19] 1359 	ld	-2 (ix), a
                                   1360 ;C:\MSX\MSXgl-1.4.1\engine/src/vdp.h:499: return mode >= VDP_MODE_GRAPHIC4;
    000004CE 47               [ 4] 1361 	ld	b, a
    000004CF D6 06            [ 7] 1362 	sub	a, #0x06
    000004D1 3E 00            [ 7] 1363 	ld	a, #0x00
    000004D3 17               [ 4] 1364 	rla
    000004D4 EE 01            [ 7] 1365 	xor	a, #0x01
                                   1366 ;C:\MSX\MSXgl-1.4.1\engine/src/print.c:399: if (VDP_IsBitmapMode(VDP_GetMode())) // Bitmap mode
    000004D6 5F               [ 4] 1367 	ld	e, a
    000004D7 B7               [ 4] 1368 	or	a, a
    000004D8 28 2C            [12] 1369 	jr	Z, 00109$
                                   1370 ;C:\MSX\MSXgl-1.4.1\engine/src/print.c:404: t = Print_SplitColor(t);
    000004DA 79               [ 4] 1371 	ld	a, c
    000004DB CDr00r00         [17] 1372 	call	_Print_SplitColor
    000004DE 4F               [ 4] 1373 	ld	c, a
                                   1374 ;C:\MSX\MSXgl-1.4.1\engine/src/print.c:409: for (u8 i = 0; i < PRINT_COLOR_NUM; ++i)
    000004DF 1E 00            [ 7] 1375 	ld	e, #0x00
    000004E1                       1376 00116$:
    000004E1 7B               [ 4] 1377 	ld	a, e
    000004E2 D6 0C            [ 7] 1378 	sub	a, #0x0c
    000004E4 30 0B            [12] 1379 	jr	NC, 00101$
                                   1380 ;C:\MSX\MSXgl-1.4.1\engine/src/print.c:411: PRINT_DATA.TextColor[i] = t;
    000004E6 21r08r00         [10] 1381 	ld	hl, #(_g_PrintData + 8)
    000004E9 16 00            [ 7] 1382 	ld	d, #0x00
    000004EB 19               [11] 1383 	add	hl, de
    000004EC 71               [ 7] 1384 	ld	(hl), c
                                   1385 ;C:\MSX\MSXgl-1.4.1\engine/src/print.c:409: for (u8 i = 0; i < PRINT_COLOR_NUM; ++i)
    000004ED 1C               [ 4] 1386 	inc	e
    000004EE C3rE1r04         [10] 1387 	jp	00116$
    000004F1                       1388 00101$:
                                   1389 ;C:\MSX\MSXgl-1.4.1\engine/src/print.c:417: b = Print_SplitColor(b);
    000004F1 C5               [11] 1390 	push	bc
    000004F2 DD 7E FF         [19] 1391 	ld	a, -1 (ix)
    000004F5 CDr00r00         [17] 1392 	call	_Print_SplitColor
    000004F8 C1               [10] 1393 	pop	bc
    000004F9 47               [ 4] 1394 	ld	b, a
                                   1395 ;C:\MSX\MSXgl-1.4.1\engine/src/print.c:419: PRINT_DATA.BGColor = b;
    000004FA 21r14r00         [10] 1396 	ld	hl, #(_g_PrintData + 20)
    000004FD 70               [ 7] 1397 	ld	(hl), b
                                   1398 ;C:\MSX\MSXgl-1.4.1\engine/src/print.c:421: Print_InitColorBuffer(t, b);
    000004FE 68               [ 4] 1399 	ld	l, b
                                   1400 ;	spillPairReg hl
                                   1401 ;	spillPairReg hl
    000004FF 79               [ 4] 1402 	ld	a, c
    00000500 CDrFAr02         [17] 1403 	call	_Print_InitColorBuffer
    00000503 C3rB1r05         [10] 1404 	jp	00118$
    00000506                       1405 00109$:
                                   1406 ;C:\MSX\MSXgl-1.4.1\engine/src/print.c:427: u8 col = text << 4 | bg;
    00000506 79               [ 4] 1407 	ld	a, c
    00000507 87               [ 4] 1408 	add	a, a
    00000508 87               [ 4] 1409 	add	a, a
    00000509 87               [ 4] 1410 	add	a, a
    0000050A 87               [ 4] 1411 	add	a, a
    0000050B DD B6 FF         [19] 1412 	or	a, -1 (ix)
    0000050E 4F               [ 4] 1413 	ld	c, a
                                   1414 ;C:\MSX\MSXgl-1.4.1\engine/src/print.c:428: switch (VDP_GetMode())
    0000050F DD 7E FE         [19] 1415 	ld	a, -2 (ix)
    00000512 B7               [ 4] 1416 	or	a, a
    00000513 28 1F            [12] 1417 	jr	Z, 00103$
    00000515 DD 7E FE         [19] 1418 	ld	a, -2 (ix)
    00000518 D6 02            [ 7] 1419 	sub	a, #0x02
    0000051A 28 21            [12] 1420 	jr	Z, 00104$
    0000051C DD 7E FE         [19] 1421 	ld	a, -2 (ix)
    0000051F D6 03            [ 7] 1422 	sub	a, #0x03
    00000521 28 2C            [12] 1423 	jr	Z, 00106$
    00000523 DD 7E FE         [19] 1424 	ld	a, -2 (ix)
    00000526 D6 04            [ 7] 1425 	sub	a, #0x04
    00000528 28 0A            [12] 1426 	jr	Z, 00103$
    0000052A DD 7E FE         [19] 1427 	ld	a, -2 (ix)
    0000052D D6 05            [ 7] 1428 	sub	a, #0x05
    0000052F 28 1E            [12] 1429 	jr	Z, 00106$
    00000531 C3rB1r05         [10] 1430 	jp	00118$
                                   1431 ;C:\MSX\MSXgl-1.4.1\engine/src/print.c:434: case VDP_MODE_TEXT2:		// 80 characters per line of text, character blinkable selection
    00000534                       1432 00103$:
                                   1433 ;C:\MSX\MSXgl-1.4.1\engine/src/vdp.h:724: inline void VDP_SetColor(u8 color) { VDP_RegWrite(7, color); }
    00000534 69               [ 4] 1434 	ld	l, c
                                   1435 ;	spillPairReg hl
                                   1436 ;	spillPairReg hl
    00000535 3E 07            [ 7] 1437 	ld	a, #0x07
    00000537 CDr00r00         [17] 1438 	call	_VDP_RegWrite
                                   1439 ;C:\MSX\MSXgl-1.4.1\engine/src/print.c:438: break;
    0000053A C3rB1r05         [10] 1440 	jp	00118$
                                   1441 ;C:\MSX\MSXgl-1.4.1\engine/src/print.c:441: case VDP_MODE_GRAPHIC1:		// 32 characters per one line of text, the COLOURed character available
    0000053D                       1442 00104$:
                                   1443 ;C:\MSX\MSXgl-1.4.1\engine/src/print.c:442: VDP_FillVRAM(col, g_ScreenColorLow, 0, 32);
    0000053D 21 20 00         [10] 1444 	ld	hl, #0x0020
    00000540 E5               [11] 1445 	push	hl
    00000541 AF               [ 4] 1446 	xor	a, a
    00000542 F5               [11] 1447 	push	af
    00000543 33               [ 6] 1448 	inc	sp
    00000544 ED 5Br00r00      [20] 1449 	ld	de, (_g_ScreenColorLow)
    00000548 79               [ 4] 1450 	ld	a, c
    00000549 CDr00r00         [17] 1451 	call	_VDP_FillVRAM_128K
                                   1452 ;C:\MSX\MSXgl-1.4.1\engine/src/print.c:443: break;
    0000054C C3rB1r05         [10] 1453 	jp	00118$
                                   1454 ;C:\MSX\MSXgl-1.4.1\engine/src/print.c:449: case VDP_MODE_GRAPHIC3:		// GRAPHIC 2 which can use sprite mode 2
    0000054F                       1455 00106$:
                                   1456 ;C:\MSX\MSXgl-1.4.1\engine/src/print.c:453: u16 dst = (u16)g_ScreenColorLow + PRINT_DATA.PatternOffset * 8;
    0000054F 3Ar25r00         [13] 1457 	ld	a, (#_g_PrintData + 37)
    00000552 26 00            [ 7] 1458 	ld	h, #0x00
                                   1459 ;	spillPairReg hl
                                   1460 ;	spillPairReg hl
    00000554 6F               [ 4] 1461 	ld	l, a
    00000555 29               [11] 1462 	add	hl, hl
    00000556 29               [11] 1463 	add	hl, hl
    00000557 29               [11] 1464 	add	hl, hl
    00000558 FD 2Ar00r00      [20] 1465 	ld	iy, (_g_ScreenColorLow)
    0000055C EB               [ 4] 1466 	ex	de, hl
    0000055D FD 19            [15] 1467 	add	iy, de
                                   1468 ;C:\MSX\MSXgl-1.4.1\engine/src/print.c:454: VDP_FillVRAM(col, dst, 0, PRINT_DATA.CharCount * 8);
    0000055F 3Ar17r00         [13] 1469 	ld	a, (#(_g_PrintData + 23) + 0)
    00000562 26 00            [ 7] 1470 	ld	h, #0x00
                                   1471 ;	spillPairReg hl
                                   1472 ;	spillPairReg hl
    00000564 6F               [ 4] 1473 	ld	l, a
    00000565 29               [11] 1474 	add	hl, hl
    00000566 29               [11] 1475 	add	hl, hl
    00000567 29               [11] 1476 	add	hl, hl
    00000568 C5               [11] 1477 	push	bc
    00000569 FD E5            [15] 1478 	push	iy
    0000056B E5               [11] 1479 	push	hl
    0000056C AF               [ 4] 1480 	xor	a, a
    0000056D F5               [11] 1481 	push	af
    0000056E 33               [ 6] 1482 	inc	sp
    0000056F FD E5            [15] 1483 	push	iy
    00000571 D1               [10] 1484 	pop	de
    00000572 79               [ 4] 1485 	ld	a, c
    00000573 CDr00r00         [17] 1486 	call	_VDP_FillVRAM_128K
    00000576 FD E1            [14] 1487 	pop	iy
    00000578 C1               [10] 1488 	pop	bc
                                   1489 ;C:\MSX\MSXgl-1.4.1\engine/src/print.c:455: dst += 256 * 8;
    00000579 11 00 08         [10] 1490 	ld	de, #0x0800
    0000057C FD 19            [15] 1491 	add	iy, de
                                   1492 ;C:\MSX\MSXgl-1.4.1\engine/src/print.c:456: VDP_FillVRAM(col, dst, 0, PRINT_DATA.CharCount * 8);
    0000057E 3Ar17r00         [13] 1493 	ld	a, (#(_g_PrintData + 23) + 0)
    00000581 26 00            [ 7] 1494 	ld	h, #0x00
                                   1495 ;	spillPairReg hl
                                   1496 ;	spillPairReg hl
    00000583 6F               [ 4] 1497 	ld	l, a
    00000584 29               [11] 1498 	add	hl, hl
    00000585 29               [11] 1499 	add	hl, hl
    00000586 29               [11] 1500 	add	hl, hl
    00000587 C5               [11] 1501 	push	bc
    00000588 FD E5            [15] 1502 	push	iy
    0000058A E5               [11] 1503 	push	hl
    0000058B AF               [ 4] 1504 	xor	a, a
    0000058C F5               [11] 1505 	push	af
    0000058D 33               [ 6] 1506 	inc	sp
    0000058E FD E5            [15] 1507 	push	iy
    00000590 D1               [10] 1508 	pop	de
    00000591 79               [ 4] 1509 	ld	a, c
    00000592 CDr00r00         [17] 1510 	call	_VDP_FillVRAM_128K
    00000595 FD E1            [14] 1511 	pop	iy
    00000597 C1               [10] 1512 	pop	bc
                                   1513 ;C:\MSX\MSXgl-1.4.1\engine/src/print.c:457: dst += 256 * 8;
    00000598 FD E5            [15] 1514 	push	iy
    0000059A D1               [10] 1515 	pop	de
    0000059B 21 00 08         [10] 1516 	ld	hl, #0x0800
    0000059E 19               [11] 1517 	add	hl, de
    0000059F EB               [ 4] 1518 	ex	de, hl
                                   1519 ;C:\MSX\MSXgl-1.4.1\engine/src/print.c:458: VDP_FillVRAM(col, dst, 0, PRINT_DATA.CharCount * 8);
    000005A0 3Ar17r00         [13] 1520 	ld	a, (#(_g_PrintData + 23) + 0)
    000005A3 26 00            [ 7] 1521 	ld	h, #0x00
                                   1522 ;	spillPairReg hl
                                   1523 ;	spillPairReg hl
    000005A5 6F               [ 4] 1524 	ld	l, a
    000005A6 29               [11] 1525 	add	hl, hl
    000005A7 29               [11] 1526 	add	hl, hl
    000005A8 29               [11] 1527 	add	hl, hl
    000005A9 E5               [11] 1528 	push	hl
    000005AA AF               [ 4] 1529 	xor	a, a
    000005AB F5               [11] 1530 	push	af
    000005AC 33               [ 6] 1531 	inc	sp
    000005AD 79               [ 4] 1532 	ld	a, c
    000005AE CDr00r00         [17] 1533 	call	_VDP_FillVRAM_128K
                                   1534 ;C:\MSX\MSXgl-1.4.1\engine/src/print.c:462: };
    000005B1                       1535 00118$:
                                   1536 ;C:\MSX\MSXgl-1.4.1\engine/src/print.c:465: }
    000005B1 DD F9            [10] 1537 	ld	sp, ix
    000005B3 DD E1            [14] 1538 	pop	ix
    000005B5 C9               [10] 1539 	ret
                                   1540 ;C:\MSX\MSXgl-1.4.1\engine/src/print.c:470: void Print_SetColorShade(const u8* shade)
                                   1541 ;	---------------------------------
                                   1542 ; Function Print_SetColorShade
                                   1543 ; ---------------------------------
    000005B6                       1544 _Print_SetColorShade::
    000005B6 DD E5            [15] 1545 	push	ix
    000005B8 DD 21 00 00      [14] 1546 	ld	ix,#0
    000005BC DD 39            [15] 1547 	add	ix,sp
    000005BE 3B               [ 6] 1548 	dec	sp
    000005BF 4D               [ 4] 1549 	ld	c, l
    000005C0 44               [ 4] 1550 	ld	b, h
                                   1551 ;C:\MSX\MSXgl-1.4.1\engine/src/vdp.h:483: inline u8 VDP_GetMode() { return g_VDP_Data.Mode; }
    000005C1 21r00r00         [10] 1552 	ld	hl, #_g_VDP_Data+0
    000005C4 5E               [ 7] 1553 	ld	e, (hl)
                                   1554 ;C:\MSX\MSXgl-1.4.1\engine/src/vdp.h:499: return mode >= VDP_MODE_GRAPHIC4;
    000005C5 7B               [ 4] 1555 	ld	a, e
    000005C6 D6 06            [ 7] 1556 	sub	a, #0x06
    000005C8 3E 00            [ 7] 1557 	ld	a, #0x00
    000005CA 17               [ 4] 1558 	rla
    000005CB EE 01            [ 7] 1559 	xor	a, #0x01
                                   1560 ;C:\MSX\MSXgl-1.4.1\engine/src/print.c:472: if (VDP_IsBitmapMode(VDP_GetMode())) // Bitmap mode
    000005CD 57               [ 4] 1561 	ld	d, a
    000005CE B7               [ 4] 1562 	or	a, a
    000005CF 28 24            [12] 1563 	jr	Z, 00107$
                                   1564 ;C:\MSX\MSXgl-1.4.1\engine/src/print.c:475: for (u8 i = 0; i < PRINT_COLOR_NUM; ++i)
    000005D1 1E 00            [ 7] 1565 	ld	e, #0x00
    000005D3                       1566 00113$:
    000005D3 7B               [ 4] 1567 	ld	a, e
    000005D4 D6 0C            [ 7] 1568 	sub	a, #0x0c
    000005D6 D2r6Ar06         [10] 1569 	jp	NC, 00118$
                                   1570 ;C:\MSX\MSXgl-1.4.1\engine/src/print.c:477: u8 t = shade[i];
    000005D9 6B               [ 4] 1571 	ld	l, e
    000005DA 26 00            [ 7] 1572 	ld	h, #0x00
    000005DC 09               [11] 1573 	add	hl, bc
    000005DD 56               [ 7] 1574 	ld	d, (hl)
                                   1575 ;C:\MSX\MSXgl-1.4.1\engine/src/print.c:479: t = Print_SplitColor(t);
    000005DE C5               [11] 1576 	push	bc
    000005DF D5               [11] 1577 	push	de
    000005E0 7A               [ 4] 1578 	ld	a, d
    000005E1 CDr00r00         [17] 1579 	call	_Print_SplitColor
    000005E4 D1               [10] 1580 	pop	de
    000005E5 C1               [10] 1581 	pop	bc
    000005E6 57               [ 4] 1582 	ld	d, a
                                   1583 ;C:\MSX\MSXgl-1.4.1\engine/src/print.c:481: PRINT_DATA.TextColor[i] = t;
    000005E7 3Er08            [ 7] 1584 	ld	a, #<((_g_PrintData + 8))
    000005E9 83               [ 4] 1585 	add	a, e
    000005EA 6F               [ 4] 1586 	ld	l, a
                                   1587 ;	spillPairReg hl
                                   1588 ;	spillPairReg hl
    000005EB 3Es00            [ 7] 1589 	ld	a, #>((_g_PrintData + 8))
    000005ED CE 00            [ 7] 1590 	adc	a, #0x00
    000005EF 67               [ 4] 1591 	ld	h, a
    000005F0 72               [ 7] 1592 	ld	(hl), d
                                   1593 ;C:\MSX\MSXgl-1.4.1\engine/src/print.c:475: for (u8 i = 0; i < PRINT_COLOR_NUM; ++i)
    000005F1 1C               [ 4] 1594 	inc	e
    000005F2 C3rD3r05         [10] 1595 	jp	00113$
    000005F5                       1596 00107$:
                                   1597 ;C:\MSX\MSXgl-1.4.1\engine/src/print.c:488: switch (VDP_GetMode())
    000005F5 7B               [ 4] 1598 	ld	a,e
    000005F6 FE 03            [ 7] 1599 	cp	a,#0x03
    000005F8 28 04            [12] 1600 	jr	Z, 00103$
    000005FA D6 05            [ 7] 1601 	sub	a, #0x05
    000005FC 20 6C            [12] 1602 	jr	NZ, 00118$
                                   1603 ;C:\MSX\MSXgl-1.4.1\engine/src/print.c:494: case VDP_MODE_GRAPHIC3:		// GRAPHIC 2 which can use sprite mode 2
    000005FE                       1604 00103$:
                                   1605 ;C:\MSX\MSXgl-1.4.1\engine/src/print.c:498: u16 dst = (u16)g_ScreenColorLow + PRINT_DATA.PatternOffset * 8;
    000005FE 3Ar25r00         [13] 1606 	ld	a, (#_g_PrintData + 37)
    00000601 26 00            [ 7] 1607 	ld	h, #0x00
                                   1608 ;	spillPairReg hl
                                   1609 ;	spillPairReg hl
    00000603 6F               [ 4] 1610 	ld	l, a
    00000604 29               [11] 1611 	add	hl, hl
    00000605 29               [11] 1612 	add	hl, hl
    00000606 29               [11] 1613 	add	hl, hl
    00000607 FD 2Ar00r00      [20] 1614 	ld	iy, (_g_ScreenColorLow)
    0000060B EB               [ 4] 1615 	ex	de, hl
    0000060C FD 19            [15] 1616 	add	iy, de
                                   1617 ;C:\MSX\MSXgl-1.4.1\engine/src/print.c:499: for (u8 i = 0; i < PRINT_DATA.CharCount; ++i)
    0000060E DD 36 FF 00      [19] 1618 	ld	-1 (ix), #0x00
    00000612                       1619 00116$:
    00000612 21r17r00         [10] 1620 	ld	hl, #_g_PrintData + 23
    00000615 DD 7E FF         [19] 1621 	ld	a,-1 (ix)
    00000618 96               [ 7] 1622 	sub	a,(hl)
    00000619 30 4F            [12] 1623 	jr	NC, 00118$
                                   1624 ;C:\MSX\MSXgl-1.4.1\engine/src/print.c:501: VDP_WriteVRAM(shade, dst,           0, 8);
    0000061B C5               [11] 1625 	push	bc
    0000061C FD E5            [15] 1626 	push	iy
    0000061E 21 08 00         [10] 1627 	ld	hl, #0x0008
    00000621 E5               [11] 1628 	push	hl
    00000622 AF               [ 4] 1629 	xor	a, a
    00000623 F5               [11] 1630 	push	af
    00000624 33               [ 6] 1631 	inc	sp
    00000625 FD E5            [15] 1632 	push	iy
    00000627 D1               [10] 1633 	pop	de
    00000628 69               [ 4] 1634 	ld	l, c
                                   1635 ;	spillPairReg hl
                                   1636 ;	spillPairReg hl
    00000629 60               [ 4] 1637 	ld	h, b
                                   1638 ;	spillPairReg hl
                                   1639 ;	spillPairReg hl
    0000062A CDr00r00         [17] 1640 	call	_VDP_WriteVRAM_128K
    0000062D FD E1            [14] 1641 	pop	iy
    0000062F C1               [10] 1642 	pop	bc
                                   1643 ;C:\MSX\MSXgl-1.4.1\engine/src/print.c:502: VDP_WriteVRAM(shade, dst + 256 * 8, 0, 8);
    00000630 FD E5            [15] 1644 	push	iy
    00000632 E1               [10] 1645 	pop	hl
    00000633 5D               [ 4] 1646 	ld	e, l
    00000634 7C               [ 4] 1647 	ld	a, h
    00000635 C6 08            [ 7] 1648 	add	a, #0x08
    00000637 57               [ 4] 1649 	ld	d, a
    00000638 E5               [11] 1650 	push	hl
    00000639 C5               [11] 1651 	push	bc
    0000063A 21 08 00         [10] 1652 	ld	hl, #0x0008
    0000063D E5               [11] 1653 	push	hl
    0000063E AF               [ 4] 1654 	xor	a, a
    0000063F F5               [11] 1655 	push	af
    00000640 33               [ 6] 1656 	inc	sp
    00000641 69               [ 4] 1657 	ld	l, c
                                   1658 ;	spillPairReg hl
                                   1659 ;	spillPairReg hl
    00000642 60               [ 4] 1660 	ld	h, b
                                   1661 ;	spillPairReg hl
                                   1662 ;	spillPairReg hl
    00000643 CDr00r00         [17] 1663 	call	_VDP_WriteVRAM_128K
    00000646 C1               [10] 1664 	pop	bc
    00000647 E1               [10] 1665 	pop	hl
                                   1666 ;C:\MSX\MSXgl-1.4.1\engine/src/print.c:503: VDP_WriteVRAM(shade, dst + 512 * 8, 0, 8);
    00000648 5D               [ 4] 1667 	ld	e, l
    00000649 7C               [ 4] 1668 	ld	a, h
    0000064A C6 10            [ 7] 1669 	add	a, #0x10
    0000064C 57               [ 4] 1670 	ld	d, a
    0000064D E5               [11] 1671 	push	hl
    0000064E C5               [11] 1672 	push	bc
    0000064F 21 08 00         [10] 1673 	ld	hl, #0x0008
    00000652 E5               [11] 1674 	push	hl
    00000653 AF               [ 4] 1675 	xor	a, a
    00000654 F5               [11] 1676 	push	af
    00000655 33               [ 6] 1677 	inc	sp
    00000656 69               [ 4] 1678 	ld	l, c
                                   1679 ;	spillPairReg hl
                                   1680 ;	spillPairReg hl
    00000657 60               [ 4] 1681 	ld	h, b
                                   1682 ;	spillPairReg hl
                                   1683 ;	spillPairReg hl
    00000658 CDr00r00         [17] 1684 	call	_VDP_WriteVRAM_128K
    0000065B C1               [10] 1685 	pop	bc
    0000065C E1               [10] 1686 	pop	hl
                                   1687 ;C:\MSX\MSXgl-1.4.1\engine/src/print.c:504: dst += 8;
    0000065D 11 08 00         [10] 1688 	ld	de, #0x0008
    00000660 19               [11] 1689 	add	hl, de
    00000661 E5               [11] 1690 	push	hl
    00000662 FD E1            [14] 1691 	pop	iy
                                   1692 ;C:\MSX\MSXgl-1.4.1\engine/src/print.c:499: for (u8 i = 0; i < PRINT_DATA.CharCount; ++i)
    00000664 DD 34 FF         [23] 1693 	inc	-1 (ix)
    00000667 C3r12r06         [10] 1694 	jp	00116$
                                   1695 ;C:\MSX\MSXgl-1.4.1\engine/src/print.c:509: };
    0000066A                       1696 00118$:
                                   1697 ;C:\MSX\MSXgl-1.4.1\engine/src/print.c:512: }
    0000066A 33               [ 6] 1698 	inc	sp
    0000066B DD E1            [14] 1699 	pop	ix
    0000066D C9               [10] 1700 	ret
                                   1701 ;C:\MSX\MSXgl-1.4.1\engine/src/print.c:526: u8 Print_ValidateChar(u8 chr)
                                   1702 ;	---------------------------------
                                   1703 ; Function Print_ValidateChar
                                   1704 ; ---------------------------------
    0000066E                       1705 _Print_ValidateChar::
    0000066E 4F               [ 4] 1706 	ld	c, a
                                   1707 ;C:\MSX\MSXgl-1.4.1\engine/src/print.c:528: if ((chr < PRINT_DATA.CharFirst) || (chr > PRINT_DATA.CharLast))
    0000066F 21r15r00         [10] 1708 	ld	hl, #_g_PrintData + 21
    00000672 46               [ 7] 1709 	ld	b, (hl)
    00000673 79               [ 4] 1710 	ld	a, c
    00000674 90               [ 4] 1711 	sub	a, b
    00000675 38 06            [12] 1712 	jr	C, 00113$
    00000677 3Ar16r00         [13] 1713 	ld	a, (#_g_PrintData + 22)
    0000067A 91               [ 4] 1714 	sub	a, c
    0000067B 30 3B            [12] 1715 	jr	NC, 00114$
    0000067D                       1716 00113$:
                                   1717 ;C:\MSX\MSXgl-1.4.1\engine/src/print.c:530: if ((chr >= 'a') && (chr <= 'z') && (PRINT_DATA.CharFirst <= 'A') && (PRINT_DATA.CharLast >= 'Z')) // try to remap to upper case letter
    0000067D 79               [ 4] 1718 	ld	a, c
    0000067E D6 61            [ 7] 1719 	sub	a, #0x61
    00000680 38 18            [12] 1720 	jr	C, 00108$
    00000682 3E 7A            [ 7] 1721 	ld	a, #0x7a
    00000684 91               [ 4] 1722 	sub	a, c
    00000685 38 13            [12] 1723 	jr	C, 00108$
    00000687 3E 41            [ 7] 1724 	ld	a, #0x41
    00000689 90               [ 4] 1725 	sub	a, b
    0000068A 38 0E            [12] 1726 	jr	C, 00108$
    0000068C 3Ar16r00         [13] 1727 	ld	a, (#_g_PrintData + 22)
    0000068F D6 5A            [ 7] 1728 	sub	a, #0x5a
    00000691 38 07            [12] 1729 	jr	C, 00108$
                                   1730 ;C:\MSX\MSXgl-1.4.1\engine/src/print.c:532: chr = chr - 'a' + 'A';
    00000693 79               [ 4] 1731 	ld	a, c
    00000694 C6 E0            [ 7] 1732 	add	a, #0xe0
    00000696 4F               [ 4] 1733 	ld	c, a
    00000697 C3rB8r06         [10] 1734 	jp	00114$
    0000069A                       1735 00108$:
                                   1736 ;C:\MSX\MSXgl-1.4.1\engine/src/print.c:534: else if ((chr >= 'A') && (chr <= 'Z') && (PRINT_DATA.CharFirst <= 'a') && (PRINT_DATA.CharLast >= 'z')) // try to remap to lower case letter
    0000069A 79               [ 4] 1737 	ld	a, c
    0000069B D6 41            [ 7] 1738 	sub	a, #0x41
    0000069D 38 18            [12] 1739 	jr	C, 00102$
    0000069F 3E 5A            [ 7] 1740 	ld	a, #0x5a
    000006A1 91               [ 4] 1741 	sub	a, c
    000006A2 38 13            [12] 1742 	jr	C, 00102$
    000006A4 3E 61            [ 7] 1743 	ld	a, #0x61
    000006A6 90               [ 4] 1744 	sub	a, b
    000006A7 38 0E            [12] 1745 	jr	C, 00102$
    000006A9 3Ar16r00         [13] 1746 	ld	a, (#_g_PrintData + 22)
    000006AC D6 7A            [ 7] 1747 	sub	a, #0x7a
    000006AE 38 07            [12] 1748 	jr	C, 00102$
                                   1749 ;C:\MSX\MSXgl-1.4.1\engine/src/print.c:536: chr = chr - 'A' + 'a';
    000006B0 79               [ 4] 1750 	ld	a, c
    000006B1 C6 20            [ 7] 1751 	add	a, #0x20
    000006B3 4F               [ 4] 1752 	ld	c, a
    000006B4 C3rB8r06         [10] 1753 	jp	00114$
    000006B7                       1754 00102$:
                                   1755 ;C:\MSX\MSXgl-1.4.1\engine/src/print.c:539: chr = PRINT_DATA.CharFirst;
    000006B7 48               [ 4] 1756 	ld	c, b
    000006B8                       1757 00114$:
                                   1758 ;C:\MSX\MSXgl-1.4.1\engine/src/print.c:541: return chr;
    000006B8 79               [ 4] 1759 	ld	a, c
                                   1760 ;C:\MSX\MSXgl-1.4.1\engine/src/print.c:542: }
    000006B9 C9               [10] 1761 	ret
                                   1762 ;C:\MSX\MSXgl-1.4.1\engine/src/print.c:547: u8 Print_ValidatePattern(u8 chr, const c8** patterns)
                                   1763 ;	---------------------------------
                                   1764 ; Function Print_ValidatePattern
                                   1765 ; ---------------------------------
    000006BA                       1766 _Print_ValidatePattern::
    000006BA DD E5            [15] 1767 	push	ix
    000006BC DD 21 00 00      [14] 1768 	ld	ix,#0
    000006C0 DD 39            [15] 1769 	add	ix,sp
    000006C2 F5               [11] 1770 	push	af
    000006C3 F5               [11] 1771 	push	af
    000006C4 4F               [ 4] 1772 	ld	c, a
    000006C5 DD 73 FE         [19] 1773 	ld	-2 (ix), e
    000006C8 DD 72 FF         [19] 1774 	ld	-1 (ix), d
                                   1775 ;C:\MSX\MSXgl-1.4.1\engine/src/print.c:549: if ((chr < PRINT_DATA.CharFirst) || (chr > PRINT_DATA.CharLast))
    000006CB 21r15r00         [10] 1776 	ld	hl, #_g_PrintData + 21
    000006CE 5E               [ 7] 1777 	ld	e, (hl)
    000006CF 79               [ 4] 1778 	ld	a, c
    000006D0 93               [ 4] 1779 	sub	a, e
    000006D1 38 07            [12] 1780 	jr	C, 00113$
    000006D3 3Ar16r00         [13] 1781 	ld	a, (#_g_PrintData + 22)
    000006D6 91               [ 4] 1782 	sub	a, c
    000006D7 D2r83r07         [10] 1783 	jp	NC, 00114$
    000006DA                       1784 00113$:
                                   1785 ;C:\MSX\MSXgl-1.4.1\engine/src/print.c:551: if ((chr >= 'a') && (chr <= 'z') && (PRINT_DATA.CharFirst <= 'A') && (PRINT_DATA.CharLast >= 'Z')) // try to remap to upper case letter
    000006DA 79               [ 4] 1786 	ld	a, c
    000006DB D6 61            [ 7] 1787 	sub	a, #0x61
    000006DD 38 4B            [12] 1788 	jr	C, 00108$
    000006DF 3E 7A            [ 7] 1789 	ld	a, #0x7a
    000006E1 91               [ 4] 1790 	sub	a, c
    000006E2 38 46            [12] 1791 	jr	C, 00108$
    000006E4 3E 41            [ 7] 1792 	ld	a, #0x41
    000006E6 93               [ 4] 1793 	sub	a, e
    000006E7 38 41            [12] 1794 	jr	C, 00108$
    000006E9 3Ar16r00         [13] 1795 	ld	a, (#_g_PrintData + 22)
    000006EC D6 5A            [ 7] 1796 	sub	a, #0x5a
    000006EE 38 3A            [12] 1797 	jr	C, 00108$
                                   1798 ;C:\MSX\MSXgl-1.4.1\engine/src/print.c:553: chr = chr - 'a' + 'A';
    000006F0 79               [ 4] 1799 	ld	a, c
    000006F1 C6 E0            [ 7] 1800 	add	a, #0xe0
    000006F3 4F               [ 4] 1801 	ld	c, a
                                   1802 ;C:\MSX\MSXgl-1.4.1\engine/src/print.c:554: *patterns = PRINT_DATA.FontPatterns + PRINT_DATA.PatternY * (chr - PRINT_DATA.CharFirst);
    000006F4 21r1Dr00         [10] 1803 	ld	hl, #_g_PrintData + 29
    000006F7 7E               [ 7] 1804 	ld	a, (hl)
    000006F8 DD 77 FC         [19] 1805 	ld	-4 (ix), a
    000006FB 23               [ 6] 1806 	inc	hl
    000006FC 7E               [ 7] 1807 	ld	a, (hl)
    000006FD DD 77 FD         [19] 1808 	ld	-3 (ix), a
    00000700 21r01r00         [10] 1809 	ld	hl, #_g_PrintData + 1
    00000703 46               [ 7] 1810 	ld	b, (hl)
    00000704 69               [ 4] 1811 	ld	l, c
                                   1812 ;	spillPairReg hl
                                   1813 ;	spillPairReg hl
                                   1814 ;	spillPairReg hl
                                   1815 ;	spillPairReg hl
    00000705 26 00            [ 7] 1816 	ld	h, #0x00
    00000707 54               [ 4] 1817 	ld	d, h
    00000708 BF               [ 4] 1818 	cp	a, a
    00000709 ED 52            [15] 1819 	sbc	hl, de
    0000070B EB               [ 4] 1820 	ex	de, hl
    0000070C 26 00            [ 7] 1821 	ld	h, #0x00
                                   1822 ;	spillPairReg hl
                                   1823 ;	spillPairReg hl
    0000070E C5               [11] 1824 	push	bc
    0000070F 68               [ 4] 1825 	ld	l, b
                                   1826 ;	spillPairReg hl
                                   1827 ;	spillPairReg hl
    00000710 CDr00r00         [17] 1828 	call	__mulint
    00000713 C1               [10] 1829 	pop	bc
    00000714 7B               [ 4] 1830 	ld	a, e
    00000715 DD 86 FC         [19] 1831 	add	a, -4 (ix)
    00000718 47               [ 4] 1832 	ld	b, a
    00000719 7A               [ 4] 1833 	ld	a, d
    0000071A DD 8E FD         [19] 1834 	adc	a, -3 (ix)
    0000071D 5F               [ 4] 1835 	ld	e, a
    0000071E DD 6E FE         [19] 1836 	ld	l, -2 (ix)
    00000721 DD 66 FF         [19] 1837 	ld	h, -1 (ix)
    00000724 70               [ 7] 1838 	ld	(hl), b
    00000725 23               [ 6] 1839 	inc	hl
    00000726 73               [ 7] 1840 	ld	(hl), e
    00000727 C3r83r07         [10] 1841 	jp	00114$
    0000072A                       1842 00108$:
                                   1843 ;C:\MSX\MSXgl-1.4.1\engine/src/print.c:556: else if ((chr >= 'A') && (chr <= 'Z') && (PRINT_DATA.CharFirst <= 'a') && (PRINT_DATA.CharLast >= 'z')) // try to remap to lower case letter
    0000072A 79               [ 4] 1844 	ld	a, c
    0000072B D6 41            [ 7] 1845 	sub	a, #0x41
    0000072D 38 4B            [12] 1846 	jr	C, 00102$
    0000072F 3E 5A            [ 7] 1847 	ld	a, #0x5a
    00000731 91               [ 4] 1848 	sub	a, c
    00000732 38 46            [12] 1849 	jr	C, 00102$
    00000734 3E 61            [ 7] 1850 	ld	a, #0x61
    00000736 93               [ 4] 1851 	sub	a, e
    00000737 38 41            [12] 1852 	jr	C, 00102$
    00000739 3Ar16r00         [13] 1853 	ld	a, (#_g_PrintData + 22)
    0000073C D6 7A            [ 7] 1854 	sub	a, #0x7a
    0000073E 38 3A            [12] 1855 	jr	C, 00102$
                                   1856 ;C:\MSX\MSXgl-1.4.1\engine/src/print.c:558: chr = chr - 'A' + 'a';
    00000740 79               [ 4] 1857 	ld	a, c
    00000741 C6 20            [ 7] 1858 	add	a, #0x20
    00000743 4F               [ 4] 1859 	ld	c, a
                                   1860 ;C:\MSX\MSXgl-1.4.1\engine/src/print.c:559: *patterns = PRINT_DATA.FontPatterns + PRINT_DATA.PatternY * (chr - PRINT_DATA.CharFirst);
    00000744 21r1Dr00         [10] 1861 	ld	hl, #_g_PrintData + 29
    00000747 7E               [ 7] 1862 	ld	a, (hl)
    00000748 DD 77 FC         [19] 1863 	ld	-4 (ix), a
    0000074B 23               [ 6] 1864 	inc	hl
    0000074C 7E               [ 7] 1865 	ld	a, (hl)
    0000074D DD 77 FD         [19] 1866 	ld	-3 (ix), a
    00000750 21r01r00         [10] 1867 	ld	hl, #_g_PrintData + 1
    00000753 46               [ 7] 1868 	ld	b, (hl)
    00000754 69               [ 4] 1869 	ld	l, c
                                   1870 ;	spillPairReg hl
                                   1871 ;	spillPairReg hl
                                   1872 ;	spillPairReg hl
                                   1873 ;	spillPairReg hl
    00000755 26 00            [ 7] 1874 	ld	h, #0x00
    00000757 54               [ 4] 1875 	ld	d, h
    00000758 BF               [ 4] 1876 	cp	a, a
    00000759 ED 52            [15] 1877 	sbc	hl, de
    0000075B EB               [ 4] 1878 	ex	de, hl
    0000075C 68               [ 4] 1879 	ld	l, b
                                   1880 ;	spillPairReg hl
                                   1881 ;	spillPairReg hl
    0000075D 26 00            [ 7] 1882 	ld	h, #0x00
                                   1883 ;	spillPairReg hl
                                   1884 ;	spillPairReg hl
    0000075F C5               [11] 1885 	push	bc
    00000760 CDr00r00         [17] 1886 	call	__mulint
    00000763 C1               [10] 1887 	pop	bc
    00000764 7B               [ 4] 1888 	ld	a, e
    00000765 DD 86 FC         [19] 1889 	add	a, -4 (ix)
    00000768 47               [ 4] 1890 	ld	b, a
    00000769 7A               [ 4] 1891 	ld	a, d
    0000076A DD 8E FD         [19] 1892 	adc	a, -3 (ix)
    0000076D 5F               [ 4] 1893 	ld	e, a
    0000076E DD 6E FE         [19] 1894 	ld	l, -2 (ix)
    00000771 DD 66 FF         [19] 1895 	ld	h, -1 (ix)
    00000774 70               [ 7] 1896 	ld	(hl), b
    00000775 23               [ 6] 1897 	inc	hl
    00000776 73               [ 7] 1898 	ld	(hl), e
    00000777 C3r83r07         [10] 1899 	jp	00114$
    0000077A                       1900 00102$:
                                   1901 ;C:\MSX\MSXgl-1.4.1\engine/src/print.c:562: *patterns = g_PrintInvalid;
    0000077A D1               [10] 1902 	pop	de
    0000077B E1               [10] 1903 	pop	hl
    0000077C E5               [11] 1904 	push	hl
    0000077D D5               [11] 1905 	push	de
    0000077E 36r00            [10] 1906 	ld	(hl), #<(_g_PrintInvalid)
    00000780 23               [ 6] 1907 	inc	hl
    00000781 36s00            [10] 1908 	ld	(hl), #>(_g_PrintInvalid)
    00000783                       1909 00114$:
                                   1910 ;C:\MSX\MSXgl-1.4.1\engine/src/print.c:564: return chr;
    00000783 79               [ 4] 1911 	ld	a, c
                                   1912 ;C:\MSX\MSXgl-1.4.1\engine/src/print.c:565: }
    00000784 DD F9            [10] 1913 	ld	sp, ix
    00000786 DD E1            [14] 1914 	pop	ix
    00000788 C9               [10] 1915 	ret
                                   1916 ;C:\MSX\MSXgl-1.4.1\engine/src/print.c:579: void Print_SetBitmapFont(const u8* font)
                                   1917 ;	---------------------------------
                                   1918 ; Function Print_SetBitmapFont
                                   1919 ; ---------------------------------
    00000789                       1920 _Print_SetBitmapFont::
                                   1921 ;C:\MSX\MSXgl-1.4.1\engine/src/print.c:581: Print_SetFont(font);
    00000789 CDr20r02         [17] 1922 	call	_Print_SetFont
                                   1923 ;C:\MSX\MSXgl-1.4.1\engine/src/print.c:582: Print_SetMode(PRINT_MODE_BITMAP);
    0000078C AF               [ 4] 1924 	xor	a, a
    0000078D CDr96r01         [17] 1925 	call	_Print_SetMode
                                   1926 ;C:\MSX\MSXgl-1.4.1\engine/src/print.c:583: Print_Initialize();
                                   1927 ;C:\MSX\MSXgl-1.4.1\engine/src/print.c:584: }
    00000790 C3rA2r00         [10] 1928 	jp	_Print_Initialize
                                   1929 ;C:\MSX\MSXgl-1.4.1\engine/src/print.c:590: void DrawChar_8B(u8 chr)
                                   1930 ;	---------------------------------
                                   1931 ; Function DrawChar_8B
                                   1932 ; ---------------------------------
    00000793                       1933 _DrawChar_8B::
    00000793 DD E5            [15] 1934 	push	ix
    00000795 DD 21 00 00      [14] 1935 	ld	ix,#0
    00000799 DD 39            [15] 1936 	add	ix,sp
    0000079B 21 FA FF         [10] 1937 	ld	hl, #-6
    0000079E 39               [11] 1938 	add	hl, sp
    0000079F F9               [ 6] 1939 	ld	sp, hl
    000007A0 4F               [ 4] 1940 	ld	c, a
                                   1941 ;C:\MSX\MSXgl-1.4.1\engine/src/print.c:592: const u8* patterns = PRINT_DATA.FontAddr + chr * PRINT_H(PRINT_DATA.PatternY); // Get character patterns' base address
    000007A1 ED 5Br1Fr00      [20] 1942 	ld	de, (#_g_PrintData + 31)
    000007A5 3Ar01r00         [13] 1943 	ld	a, (#(_g_PrintData + 1) + 0)
    000007A8 D5               [11] 1944 	push	de
    000007A9 5F               [ 4] 1945 	ld	e, a
    000007AA 61               [ 4] 1946 	ld	h, c
                                   1947 ;	spillPairReg hl
                                   1948 ;	spillPairReg hl
    000007AB 2E 00            [ 7] 1949 	ld	l, #0x00
    000007AD 55               [ 4] 1950 	ld	d, l
    000007AE 06 08            [ 7] 1951 	ld	b, #0x08
    000007B0                       1952 00120$:
    000007B0 29               [11] 1953 	add	hl, hl
    000007B1 30 01            [12] 1954 	jr	NC, 00121$
    000007B3 19               [11] 1955 	add	hl, de
    000007B4                       1956 00121$:
    000007B4 10 FA            [13] 1957 	djnz	00120$
    000007B6 D1               [10] 1958 	pop	de
    000007B7 19               [11] 1959 	add	hl, de
    000007B8 E3               [19] 1960 	ex	(sp), hl
                                   1961 ;C:\MSX\MSXgl-1.4.1\engine/src/print.c:594: chr = Print_ValidatePattern(chr, &patterns);
    000007B9 21 00 00         [10] 1962 	ld	hl, #0
    000007BC 39               [11] 1963 	add	hl, sp
    000007BD EB               [ 4] 1964 	ex	de, hl
    000007BE 79               [ 4] 1965 	ld	a, c
    000007BF CDrBAr06         [17] 1966 	call	_Print_ValidatePattern
                                   1967 ;C:\MSX\MSXgl-1.4.1\engine/src/print.c:596: u16* l = (u16*)g_HeapStartAddress;
    000007C2 ED 4Br00r00      [20] 1968 	ld	bc, (_g_HeapStartAddress)
                                   1969 ;C:\MSX\MSXgl-1.4.1\engine/src/print.c:597: for (u8 j = 0; j < PRINT_H(PRINT_DATA.PatternY); ++j) // Unpack each 6/8-bits line to buffer and send it to VRAM
    000007C6 DD 36 FF 00      [19] 1970 	ld	-1 (ix), #0x00
    000007CA                       1971 00105$:
    000007CA 21r01r00         [10] 1972 	ld	hl, #(_g_PrintData + 1)
    000007CD 5E               [ 7] 1973 	ld	e, (hl)
    000007CE DD 7E FF         [19] 1974 	ld	a, -1 (ix)
    000007D1 93               [ 4] 1975 	sub	a, e
    000007D2 D2r64r08         [10] 1976 	jp	NC, 00101$
                                   1977 ;C:\MSX\MSXgl-1.4.1\engine/src/print.c:600: Print_InitColorBuffer(PRINT_DATA.TextColor[j], PRINT_DATA.BGColor);
    000007D5 21r14r00         [10] 1978 	ld	hl, #_g_PrintData + 20
    000007D8 5E               [ 7] 1979 	ld	e, (hl)
    000007D9 3Er08            [ 7] 1980 	ld	a, #<((_g_PrintData + 8))
    000007DB DD 86 FF         [19] 1981 	add	a, -1 (ix)
    000007DE 6F               [ 4] 1982 	ld	l, a
                                   1983 ;	spillPairReg hl
                                   1984 ;	spillPairReg hl
    000007DF 3Es00            [ 7] 1985 	ld	a, #>((_g_PrintData + 8))
    000007E1 CE 00            [ 7] 1986 	adc	a, #0x00
    000007E3 67               [ 4] 1987 	ld	h, a
    000007E4 56               [ 7] 1988 	ld	d, (hl)
    000007E5 C5               [11] 1989 	push	bc
    000007E6 6B               [ 4] 1990 	ld	l, e
                                   1991 ;	spillPairReg hl
                                   1992 ;	spillPairReg hl
    000007E7 7A               [ 4] 1993 	ld	a, d
    000007E8 CDrFAr02         [17] 1994 	call	_Print_InitColorBuffer
    000007EB C1               [10] 1995 	pop	bc
                                   1996 ;C:\MSX\MSXgl-1.4.1\engine/src/print.c:602: u8 f = patterns[j];
    000007EC DD 7E FA         [19] 1997 	ld	a, -6 (ix)
    000007EF DD 86 FF         [19] 1998 	add	a, -1 (ix)
    000007F2 5F               [ 4] 1999 	ld	e, a
    000007F3 DD 7E FB         [19] 2000 	ld	a, -5 (ix)
    000007F6 CE 00            [ 7] 2001 	adc	a, #0x00
    000007F8 57               [ 4] 2002 	ld	d, a
    000007F9 1A               [ 7] 2003 	ld	a, (de)
                                   2004 ;C:\MSX\MSXgl-1.4.1\engine/src/print.c:603: *l++ = ((u16*)PRINT_DATA.Buffer)[f >> 6];
    000007FA DD 77 FE         [19] 2005 	ld	-2 (ix), a
    000007FD 07               [ 4] 2006 	rlca
    000007FE 07               [ 4] 2007 	rlca
    000007FF E6 03            [ 7] 2008 	and	a, #0x03
    00000801 26 00            [ 7] 2009 	ld	h, #0x00
                                   2010 ;	spillPairReg hl
                                   2011 ;	spillPairReg hl
    00000803 6F               [ 4] 2012 	ld	l, a
    00000804 29               [11] 2013 	add	hl, hl
    00000805 11r2Ar00         [10] 2014 	ld	de, #(_g_PrintData + 42)
    00000808 19               [11] 2015 	add	hl, de
    00000809 5E               [ 7] 2016 	ld	e, (hl)
    0000080A 23               [ 6] 2017 	inc	hl
    0000080B 56               [ 7] 2018 	ld	d, (hl)
    0000080C 69               [ 4] 2019 	ld	l, c
    0000080D 60               [ 4] 2020 	ld	h, b
    0000080E 73               [ 7] 2021 	ld	(hl), e
    0000080F 23               [ 6] 2022 	inc	hl
    00000810 72               [ 7] 2023 	ld	(hl), d
    00000811 03               [ 6] 2024 	inc	bc
    00000812 03               [ 6] 2025 	inc	bc
                                   2026 ;C:\MSX\MSXgl-1.4.1\engine/src/print.c:604: *l++ = ((u16*)PRINT_DATA.Buffer)[(f >> 4) & 0x03];
    00000813 DD 7E FE         [19] 2027 	ld	a, -2 (ix)
    00000816 07               [ 4] 2028 	rlca
    00000817 07               [ 4] 2029 	rlca
    00000818 07               [ 4] 2030 	rlca
    00000819 07               [ 4] 2031 	rlca
    0000081A E6 03            [ 7] 2032 	and	a, #0x3
    0000081C 6F               [ 4] 2033 	ld	l, a
                                   2034 ;	spillPairReg hl
                                   2035 ;	spillPairReg hl
    0000081D 26 00            [ 7] 2036 	ld	h, #0x00
                                   2037 ;	spillPairReg hl
                                   2038 ;	spillPairReg hl
    0000081F 29               [11] 2039 	add	hl, hl
    00000820 11r2Ar00         [10] 2040 	ld	de, #(_g_PrintData + 42)
    00000823 19               [11] 2041 	add	hl, de
    00000824 5E               [ 7] 2042 	ld	e, (hl)
    00000825 23               [ 6] 2043 	inc	hl
    00000826 56               [ 7] 2044 	ld	d, (hl)
    00000827 69               [ 4] 2045 	ld	l, c
    00000828 60               [ 4] 2046 	ld	h, b
    00000829 73               [ 7] 2047 	ld	(hl), e
    0000082A 23               [ 6] 2048 	inc	hl
    0000082B 72               [ 7] 2049 	ld	(hl), d
    0000082C 03               [ 6] 2050 	inc	bc
    0000082D 03               [ 6] 2051 	inc	bc
                                   2052 ;C:\MSX\MSXgl-1.4.1\engine/src/print.c:605: *l++ = ((u16*)PRINT_DATA.Buffer)[(f >> 2) & 0x03];
    0000082E DD 7E FE         [19] 2053 	ld	a, -2 (ix)
    00000831 0F               [ 4] 2054 	rrca
    00000832 0F               [ 4] 2055 	rrca
    00000833 E6 03            [ 7] 2056 	and	a, #0x3
    00000835 6F               [ 4] 2057 	ld	l, a
                                   2058 ;	spillPairReg hl
                                   2059 ;	spillPairReg hl
    00000836 26 00            [ 7] 2060 	ld	h, #0x00
                                   2061 ;	spillPairReg hl
                                   2062 ;	spillPairReg hl
    00000838 29               [11] 2063 	add	hl, hl
    00000839 11r2Ar00         [10] 2064 	ld	de, #(_g_PrintData + 42)
    0000083C 19               [11] 2065 	add	hl, de
    0000083D 5E               [ 7] 2066 	ld	e, (hl)
    0000083E 23               [ 6] 2067 	inc	hl
    0000083F 56               [ 7] 2068 	ld	d, (hl)
    00000840 69               [ 4] 2069 	ld	l, c
    00000841 60               [ 4] 2070 	ld	h, b
    00000842 73               [ 7] 2071 	ld	(hl), e
    00000843 23               [ 6] 2072 	inc	hl
    00000844 72               [ 7] 2073 	ld	(hl), d
    00000845 03               [ 6] 2074 	inc	bc
    00000846 03               [ 6] 2075 	inc	bc
                                   2076 ;C:\MSX\MSXgl-1.4.1\engine/src/print.c:607: *l++ = ((u16*)PRINT_DATA.Buffer)[f & 0x03];
    00000847 DD 7E FE         [19] 2077 	ld	a, -2 (ix)
    0000084A E6 03            [ 7] 2078 	and	a, #0x03
    0000084C 6F               [ 4] 2079 	ld	l, a
                                   2080 ;	spillPairReg hl
                                   2081 ;	spillPairReg hl
    0000084D 26 00            [ 7] 2082 	ld	h, #0x00
                                   2083 ;	spillPairReg hl
                                   2084 ;	spillPairReg hl
    0000084F 29               [11] 2085 	add	hl, hl
    00000850 11r2Ar00         [10] 2086 	ld	de, #(_g_PrintData + 42)
    00000853 19               [11] 2087 	add	hl, de
    00000854 5E               [ 7] 2088 	ld	e, (hl)
    00000855 23               [ 6] 2089 	inc	hl
    00000856 56               [ 7] 2090 	ld	d, (hl)
    00000857 69               [ 4] 2091 	ld	l, c
    00000858 60               [ 4] 2092 	ld	h, b
    00000859 73               [ 7] 2093 	ld	(hl), e
    0000085A 23               [ 6] 2094 	inc	hl
    0000085B 72               [ 7] 2095 	ld	(hl), d
    0000085C 03               [ 6] 2096 	inc	bc
    0000085D 03               [ 6] 2097 	inc	bc
                                   2098 ;C:\MSX\MSXgl-1.4.1\engine/src/print.c:597: for (u8 j = 0; j < PRINT_H(PRINT_DATA.PatternY); ++j) // Unpack each 6/8-bits line to buffer and send it to VRAM
    0000085E DD 34 FF         [23] 2099 	inc	-1 (ix)
    00000861 C3rCAr07         [10] 2100 	jp	00105$
    00000864                       2101 00101$:
                                   2102 ;C:\MSX\MSXgl-1.4.1\engine/src/print.c:610: VDP_CommandHMMC((u8*)g_HeapStartAddress, PRINT_DATA.CursorX, PRINT_DATA.CursorY, DATA_LEN, PRINT_H(PRINT_DATA.PatternY));
    00000864 DD 73 FC         [19] 2103 	ld	-4 (ix), e
    00000867 DD 36 FD 00      [19] 2104 	ld	-3 (ix), #0x00
    0000086B 3Ar07r00         [13] 2105 	ld	a, (#_g_PrintData + 7)
    0000086E DD 77 FE         [19] 2106 	ld	-2 (ix), a
    00000871 DD 36 FF 00      [19] 2107 	ld	-1 (ix), #0x00
    00000875 ED 4Br05r00      [20] 2108 	ld	bc, (#_g_PrintData + 5)
    00000879 ED 5Br00r00      [20] 2109 	ld	de, (_g_HeapStartAddress)
                                   2110 ;C:\MSX\MSXgl-1.4.1\engine/src/vdp_inl.h:23: g_VDP_Command.DX = dx;
    0000087D ED 43r04r00      [20] 2111 	ld	((_g_VDP_Command + 4)), bc
                                   2112 ;C:\MSX\MSXgl-1.4.1\engine/src/vdp_inl.h:24: g_VDP_Command.DY = dy;
    00000881 21r06r00         [10] 2113 	ld	hl, #(_g_VDP_Command + 6)
    00000884 DD 7E FE         [19] 2114 	ld	a, -2 (ix)
    00000887 77               [ 7] 2115 	ld	(hl), a
    00000888 23               [ 6] 2116 	inc	hl
    00000889 DD 7E FF         [19] 2117 	ld	a, -1 (ix)
    0000088C 77               [ 7] 2118 	ld	(hl), a
                                   2119 ;C:\MSX\MSXgl-1.4.1\engine/src/vdp_inl.h:25: g_VDP_Command.NX = nx;
    0000088D 21 08 00         [10] 2120 	ld	hl, #0x0008
    00000890 22r08r00         [16] 2121 	ld	((_g_VDP_Command + 8)), hl
                                   2122 ;C:\MSX\MSXgl-1.4.1\engine/src/vdp_inl.h:26: g_VDP_Command.NY = ny;
    00000893 21r0Ar00         [10] 2123 	ld	hl, #(_g_VDP_Command + 10)
    00000896 DD 7E FC         [19] 2124 	ld	a, -4 (ix)
    00000899 77               [ 7] 2125 	ld	(hl), a
    0000089A 23               [ 6] 2126 	inc	hl
    0000089B DD 7E FD         [19] 2127 	ld	a, -3 (ix)
    0000089E 77               [ 7] 2128 	ld	(hl), a
                                   2129 ;C:\MSX\MSXgl-1.4.1\engine/src/vdp_inl.h:27: g_VDP_Command.CLR = *addr;
    0000089F 1A               [ 7] 2130 	ld	a, (de)
    000008A0 32r0Cr00         [13] 2131 	ld	(#(_g_VDP_Command + 12)),a
                                   2132 ;C:\MSX\MSXgl-1.4.1\engine/src/vdp_inl.h:28: g_VDP_Command.ARG = arg; 
    000008A3 21r0Dr00         [10] 2133 	ld	hl, #(_g_VDP_Command + 13)
    000008A6 36 00            [10] 2134 	ld	(hl), #0x00
                                   2135 ;C:\MSX\MSXgl-1.4.1\engine/src/vdp_inl.h:29: g_VDP_Command.CMD = VDP_CMD_HMMC;
    000008A8 21r0Er00         [10] 2136 	ld	hl, #(_g_VDP_Command + 14)
    000008AB 36 F0            [10] 2137 	ld	(hl), #0xf0
                                   2138 ;C:\MSX\MSXgl-1.4.1\engine/src/vdp_inl.h:30: VDP_CommandSetupR36();
    000008AD D5               [11] 2139 	push	de
    000008AE CDr00r00         [17] 2140 	call	_VDP_CommandSetupR36
    000008B1 D1               [10] 2141 	pop	de
                                   2142 ;C:\MSX\MSXgl-1.4.1\engine/src/vdp_inl.h:31: VDP_CommandWriteLoop(addr);
    000008B2 EB               [ 4] 2143 	ex	de, hl
    000008B3 CDr00r00         [17] 2144 	call	_VDP_CommandWriteLoop
                                   2145 ;C:\MSX\MSXgl-1.4.1\engine/src/print.c:610: VDP_CommandHMMC((u8*)g_HeapStartAddress, PRINT_DATA.CursorX, PRINT_DATA.CursorY, DATA_LEN, PRINT_H(PRINT_DATA.PatternY));
                                   2146 ;C:\MSX\MSXgl-1.4.1\engine/src/print.c:611: }
    000008B6 DD F9            [10] 2147 	ld	sp, ix
    000008B8 DD E1            [14] 2148 	pop	ix
    000008BA C9               [10] 2149 	ret
                                   2150 ;C:\MSX\MSXgl-1.4.1\engine/src/print.c:619: void DrawChar_4B(u8 chr)
                                   2151 ;	---------------------------------
                                   2152 ; Function DrawChar_4B
                                   2153 ; ---------------------------------
    000008BB                       2154 _DrawChar_4B::
    000008BB DD E5            [15] 2155 	push	ix
    000008BD DD 21 00 00      [14] 2156 	ld	ix,#0
    000008C1 DD 39            [15] 2157 	add	ix,sp
    000008C3 21 FA FF         [10] 2158 	ld	hl, #-6
    000008C6 39               [11] 2159 	add	hl, sp
    000008C7 F9               [ 6] 2160 	ld	sp, hl
    000008C8 4F               [ 4] 2161 	ld	c, a
                                   2162 ;C:\MSX\MSXgl-1.4.1\engine/src/print.c:621: const u8* patterns = PRINT_DATA.FontAddr + chr * PRINT_H(PRINT_DATA.PatternY); // Get character patterns' base address
    000008C9 ED 5Br1Fr00      [20] 2163 	ld	de, (#_g_PrintData + 31)
    000008CD 3Ar01r00         [13] 2164 	ld	a, (#(_g_PrintData + 1) + 0)
    000008D0 D5               [11] 2165 	push	de
    000008D1 5F               [ 4] 2166 	ld	e, a
    000008D2 61               [ 4] 2167 	ld	h, c
                                   2168 ;	spillPairReg hl
                                   2169 ;	spillPairReg hl
    000008D3 2E 00            [ 7] 2170 	ld	l, #0x00
    000008D5 55               [ 4] 2171 	ld	d, l
    000008D6 06 08            [ 7] 2172 	ld	b, #0x08
    000008D8                       2173 00120$:
    000008D8 29               [11] 2174 	add	hl, hl
    000008D9 30 01            [12] 2175 	jr	NC, 00121$
    000008DB 19               [11] 2176 	add	hl, de
    000008DC                       2177 00121$:
    000008DC 10 FA            [13] 2178 	djnz	00120$
    000008DE D1               [10] 2179 	pop	de
    000008DF 19               [11] 2180 	add	hl, de
    000008E0 E3               [19] 2181 	ex	(sp), hl
                                   2182 ;C:\MSX\MSXgl-1.4.1\engine/src/print.c:623: chr = Print_ValidatePattern(chr, &patterns);
    000008E1 21 00 00         [10] 2183 	ld	hl, #0
    000008E4 39               [11] 2184 	add	hl, sp
    000008E5 EB               [ 4] 2185 	ex	de, hl
    000008E6 79               [ 4] 2186 	ld	a, c
    000008E7 CDrBAr06         [17] 2187 	call	_Print_ValidatePattern
                                   2188 ;C:\MSX\MSXgl-1.4.1\engine/src/print.c:625: u8* l = (u8*)g_HeapStartAddress;
    000008EA ED 4Br00r00      [20] 2189 	ld	bc, (_g_HeapStartAddress)
                                   2190 ;C:\MSX\MSXgl-1.4.1\engine/src/print.c:626: for (u8 j = 0; j < PRINT_H(PRINT_DATA.PatternY); ++j) // Unpack each 6/8-bits line to buffer and send it to VRAM
    000008EE 1E 00            [ 7] 2191 	ld	e, #0x00
    000008F0                       2192 00105$:
    000008F0 21r01r00         [10] 2193 	ld	hl, #(_g_PrintData + 1)
    000008F3 6E               [ 7] 2194 	ld	l, (hl)
                                   2195 ;	spillPairReg hl
    000008F4 7B               [ 4] 2196 	ld	a, e
    000008F5 95               [ 4] 2197 	sub	a, l
    000008F6 30 64            [12] 2198 	jr	NC, 00101$
                                   2199 ;C:\MSX\MSXgl-1.4.1\engine/src/print.c:629: Print_InitColorBuffer(PRINT_DATA.TextColor[j], PRINT_DATA.BGColor);
    000008F8 21r14r00         [10] 2200 	ld	hl, #_g_PrintData + 20
    000008FB 56               [ 7] 2201 	ld	d, (hl)
    000008FC 3Er08            [ 7] 2202 	ld	a, #<((_g_PrintData + 8))
    000008FE 83               [ 4] 2203 	add	a, e
    000008FF 6F               [ 4] 2204 	ld	l, a
                                   2205 ;	spillPairReg hl
                                   2206 ;	spillPairReg hl
    00000900 3Es00            [ 7] 2207 	ld	a, #>((_g_PrintData + 8))
    00000902 CE 00            [ 7] 2208 	adc	a, #0x00
    00000904 67               [ 4] 2209 	ld	h, a
    00000905 66               [ 7] 2210 	ld	h, (hl)
                                   2211 ;	spillPairReg hl
    00000906 C5               [11] 2212 	push	bc
    00000907 D5               [11] 2213 	push	de
    00000908 6A               [ 4] 2214 	ld	l, d
                                   2215 ;	spillPairReg hl
                                   2216 ;	spillPairReg hl
    00000909 7C               [ 4] 2217 	ld	a, h
    0000090A CDrFAr02         [17] 2218 	call	_Print_InitColorBuffer
    0000090D D1               [10] 2219 	pop	de
    0000090E C1               [10] 2220 	pop	bc
                                   2221 ;C:\MSX\MSXgl-1.4.1\engine/src/print.c:631: u8 f = patterns[j];
    0000090F E1               [10] 2222 	pop	hl
    00000910 E5               [11] 2223 	push	hl
    00000911 16 00            [ 7] 2224 	ld	d, #0x00
    00000913 19               [11] 2225 	add	hl, de
    00000914 56               [ 7] 2226 	ld	d, (hl)
                                   2227 ;C:\MSX\MSXgl-1.4.1\engine/src/print.c:632: *l++ = PRINT_DATA.Buffer[f >> 6];
    00000915 7A               [ 4] 2228 	ld	a, d
    00000916 07               [ 4] 2229 	rlca
    00000917 07               [ 4] 2230 	rlca
    00000918 E6 03            [ 7] 2231 	and	a, #0x03
    0000091A C6r2A            [ 7] 2232 	add	a, #<((_g_PrintData + 42))
    0000091C 6F               [ 4] 2233 	ld	l, a
                                   2234 ;	spillPairReg hl
                                   2235 ;	spillPairReg hl
    0000091D 3E 00            [ 7] 2236 	ld	a, #0x00
    0000091F CEs00            [ 7] 2237 	adc	a, #>((_g_PrintData + 42))
    00000921 67               [ 4] 2238 	ld	h, a
    00000922 7E               [ 7] 2239 	ld	a, (hl)
    00000923 02               [ 7] 2240 	ld	(bc), a
    00000924 03               [ 6] 2241 	inc	bc
                                   2242 ;C:\MSX\MSXgl-1.4.1\engine/src/print.c:633: *l++ = PRINT_DATA.Buffer[(f >> 4) & 0x03];
    00000925 7A               [ 4] 2243 	ld	a, d
    00000926 07               [ 4] 2244 	rlca
    00000927 07               [ 4] 2245 	rlca
    00000928 07               [ 4] 2246 	rlca
    00000929 07               [ 4] 2247 	rlca
                                   2248 ;	spillPairReg hl
                                   2249 ;	spillPairReg hl
    0000092A E6 03            [ 7] 2250 	and	a, #0x3
    0000092C 6F               [ 4] 2251 	ld	l, a
                                   2252 ;	spillPairReg hl
                                   2253 ;	spillPairReg hl
    0000092D 26 00            [ 7] 2254 	ld	h, #0x00
                                   2255 ;	spillPairReg hl
                                   2256 ;	spillPairReg hl
    0000092F D5               [11] 2257 	push	de
    00000930 11r2Ar00         [10] 2258 	ld	de, #(_g_PrintData + 42)
    00000933 19               [11] 2259 	add	hl, de
    00000934 D1               [10] 2260 	pop	de
    00000935 7E               [ 7] 2261 	ld	a, (hl)
    00000936 02               [ 7] 2262 	ld	(bc), a
    00000937 03               [ 6] 2263 	inc	bc
                                   2264 ;C:\MSX\MSXgl-1.4.1\engine/src/print.c:634: *l++ = PRINT_DATA.Buffer[(f >> 2) & 0x03];
    00000938 7A               [ 4] 2265 	ld	a, d
    00000939 0F               [ 4] 2266 	rrca
    0000093A 0F               [ 4] 2267 	rrca
                                   2268 ;	spillPairReg hl
                                   2269 ;	spillPairReg hl
    0000093B E6 03            [ 7] 2270 	and	a, #0x3
    0000093D 6F               [ 4] 2271 	ld	l, a
                                   2272 ;	spillPairReg hl
                                   2273 ;	spillPairReg hl
    0000093E 26 00            [ 7] 2274 	ld	h, #0x00
                                   2275 ;	spillPairReg hl
                                   2276 ;	spillPairReg hl
    00000940 D5               [11] 2277 	push	de
    00000941 11r2Ar00         [10] 2278 	ld	de, #(_g_PrintData + 42)
    00000944 19               [11] 2279 	add	hl, de
    00000945 D1               [10] 2280 	pop	de
    00000946 7E               [ 7] 2281 	ld	a, (hl)
    00000947 02               [ 7] 2282 	ld	(bc), a
    00000948 03               [ 6] 2283 	inc	bc
                                   2284 ;C:\MSX\MSXgl-1.4.1\engine/src/print.c:636: *l++ = PRINT_DATA.Buffer[f & 0x03];
                                   2285 ;	spillPairReg hl
                                   2286 ;	spillPairReg hl
                                   2287 ;	spillPairReg hl
                                   2288 ;	spillPairReg hl
    00000949 7A               [ 4] 2289 	ld	a, d
    0000094A E6 03            [ 7] 2290 	and	a, #0x03
    0000094C 16 00            [ 7] 2291 	ld	d, #0x00
    0000094E C6r2A            [ 7] 2292 	add	a, #<((_g_PrintData + 42))
    00000950 6F               [ 4] 2293 	ld	l, a
                                   2294 ;	spillPairReg hl
                                   2295 ;	spillPairReg hl
    00000951 7A               [ 4] 2296 	ld	a, d
    00000952 CEs00            [ 7] 2297 	adc	a, #>((_g_PrintData + 42))
    00000954 67               [ 4] 2298 	ld	h, a
                                   2299 ;	spillPairReg hl
                                   2300 ;	spillPairReg hl
    00000955 7E               [ 7] 2301 	ld	a, (hl)
    00000956 02               [ 7] 2302 	ld	(bc), a
    00000957 03               [ 6] 2303 	inc	bc
                                   2304 ;C:\MSX\MSXgl-1.4.1\engine/src/print.c:626: for (u8 j = 0; j < PRINT_H(PRINT_DATA.PatternY); ++j) // Unpack each 6/8-bits line to buffer and send it to VRAM
    00000958 1C               [ 4] 2305 	inc	e
    00000959 C3rF0r08         [10] 2306 	jp	00105$
    0000095C                       2307 00101$:
                                   2308 ;C:\MSX\MSXgl-1.4.1\engine/src/print.c:639: VDP_CommandHMMC((u8*)g_HeapStartAddress, PRINT_DATA.CursorX, PRINT_DATA.CursorY, DATA_LEN, PRINT_H(PRINT_DATA.PatternY));
    0000095C DD 75 FC         [19] 2309 	ld	-4 (ix), l
    0000095F DD 36 FD 00      [19] 2310 	ld	-3 (ix), #0x00
    00000963 3Ar07r00         [13] 2311 	ld	a, (#_g_PrintData + 7)
    00000966 DD 77 FE         [19] 2312 	ld	-2 (ix), a
    00000969 DD 36 FF 00      [19] 2313 	ld	-1 (ix), #0x00
    0000096D ED 4Br05r00      [20] 2314 	ld	bc, (#_g_PrintData + 5)
    00000971 ED 5Br00r00      [20] 2315 	ld	de, (_g_HeapStartAddress)
                                   2316 ;C:\MSX\MSXgl-1.4.1\engine/src/vdp_inl.h:23: g_VDP_Command.DX = dx;
    00000975 ED 43r04r00      [20] 2317 	ld	((_g_VDP_Command + 4)), bc
                                   2318 ;C:\MSX\MSXgl-1.4.1\engine/src/vdp_inl.h:24: g_VDP_Command.DY = dy;
    00000979 21r06r00         [10] 2319 	ld	hl, #(_g_VDP_Command + 6)
    0000097C DD 7E FE         [19] 2320 	ld	a, -2 (ix)
    0000097F 77               [ 7] 2321 	ld	(hl), a
    00000980 23               [ 6] 2322 	inc	hl
    00000981 DD 7E FF         [19] 2323 	ld	a, -1 (ix)
    00000984 77               [ 7] 2324 	ld	(hl), a
                                   2325 ;C:\MSX\MSXgl-1.4.1\engine/src/vdp_inl.h:25: g_VDP_Command.NX = nx;
    00000985 21 08 00         [10] 2326 	ld	hl, #0x0008
    00000988 22r08r00         [16] 2327 	ld	((_g_VDP_Command + 8)), hl
                                   2328 ;C:\MSX\MSXgl-1.4.1\engine/src/vdp_inl.h:26: g_VDP_Command.NY = ny;
    0000098B 21r0Ar00         [10] 2329 	ld	hl, #(_g_VDP_Command + 10)
    0000098E DD 7E FC         [19] 2330 	ld	a, -4 (ix)
    00000991 77               [ 7] 2331 	ld	(hl), a
    00000992 23               [ 6] 2332 	inc	hl
    00000993 DD 7E FD         [19] 2333 	ld	a, -3 (ix)
    00000996 77               [ 7] 2334 	ld	(hl), a
                                   2335 ;C:\MSX\MSXgl-1.4.1\engine/src/vdp_inl.h:27: g_VDP_Command.CLR = *addr;
    00000997 1A               [ 7] 2336 	ld	a, (de)
    00000998 32r0Cr00         [13] 2337 	ld	(#(_g_VDP_Command + 12)),a
                                   2338 ;C:\MSX\MSXgl-1.4.1\engine/src/vdp_inl.h:28: g_VDP_Command.ARG = arg; 
    0000099B 21r0Dr00         [10] 2339 	ld	hl, #(_g_VDP_Command + 13)
    0000099E 36 00            [10] 2340 	ld	(hl), #0x00
                                   2341 ;C:\MSX\MSXgl-1.4.1\engine/src/vdp_inl.h:29: g_VDP_Command.CMD = VDP_CMD_HMMC;
    000009A0 21r0Er00         [10] 2342 	ld	hl, #(_g_VDP_Command + 14)
    000009A3 36 F0            [10] 2343 	ld	(hl), #0xf0
                                   2344 ;C:\MSX\MSXgl-1.4.1\engine/src/vdp_inl.h:30: VDP_CommandSetupR36();
    000009A5 D5               [11] 2345 	push	de
    000009A6 CDr00r00         [17] 2346 	call	_VDP_CommandSetupR36
    000009A9 D1               [10] 2347 	pop	de
                                   2348 ;C:\MSX\MSXgl-1.4.1\engine/src/vdp_inl.h:31: VDP_CommandWriteLoop(addr);
    000009AA EB               [ 4] 2349 	ex	de, hl
    000009AB CDr00r00         [17] 2350 	call	_VDP_CommandWriteLoop
                                   2351 ;C:\MSX\MSXgl-1.4.1\engine/src/print.c:639: VDP_CommandHMMC((u8*)g_HeapStartAddress, PRINT_DATA.CursorX, PRINT_DATA.CursorY, DATA_LEN, PRINT_H(PRINT_DATA.PatternY));
                                   2352 ;C:\MSX\MSXgl-1.4.1\engine/src/print.c:640: }
    000009AE DD F9            [10] 2353 	ld	sp, ix
    000009B0 DD E1            [14] 2354 	pop	ix
    000009B2 C9               [10] 2355 	ret
                                   2356 ;C:\MSX\MSXgl-1.4.1\engine/src/print.c:648: void DrawChar_2B(u8 chr)
                                   2357 ;	---------------------------------
                                   2358 ; Function DrawChar_2B
                                   2359 ; ---------------------------------
    000009B3                       2360 _DrawChar_2B::
    000009B3 DD E5            [15] 2361 	push	ix
    000009B5 DD 21 00 00      [14] 2362 	ld	ix,#0
    000009B9 DD 39            [15] 2363 	add	ix,sp
    000009BB 21 FA FF         [10] 2364 	ld	hl, #-6
    000009BE 39               [11] 2365 	add	hl, sp
    000009BF F9               [ 6] 2366 	ld	sp, hl
    000009C0 4F               [ 4] 2367 	ld	c, a
                                   2368 ;C:\MSX\MSXgl-1.4.1\engine/src/print.c:650: const u8* patterns = PRINT_DATA.FontAddr + chr * PRINT_H(PRINT_DATA.PatternY); // Get character patterns' base address
    000009C1 ED 5Br1Fr00      [20] 2369 	ld	de, (#_g_PrintData + 31)
    000009C5 3Ar01r00         [13] 2370 	ld	a, (#(_g_PrintData + 1) + 0)
    000009C8 D5               [11] 2371 	push	de
    000009C9 5F               [ 4] 2372 	ld	e, a
    000009CA 61               [ 4] 2373 	ld	h, c
                                   2374 ;	spillPairReg hl
                                   2375 ;	spillPairReg hl
    000009CB 2E 00            [ 7] 2376 	ld	l, #0x00
    000009CD 55               [ 4] 2377 	ld	d, l
    000009CE 06 08            [ 7] 2378 	ld	b, #0x08
    000009D0                       2379 00120$:
    000009D0 29               [11] 2380 	add	hl, hl
    000009D1 30 01            [12] 2381 	jr	NC, 00121$
    000009D3 19               [11] 2382 	add	hl, de
    000009D4                       2383 00121$:
    000009D4 10 FA            [13] 2384 	djnz	00120$
    000009D6 D1               [10] 2385 	pop	de
    000009D7 19               [11] 2386 	add	hl, de
    000009D8 E3               [19] 2387 	ex	(sp), hl
                                   2388 ;C:\MSX\MSXgl-1.4.1\engine/src/print.c:652: chr = Print_ValidatePattern(chr, &patterns);
    000009D9 21 00 00         [10] 2389 	ld	hl, #0
    000009DC 39               [11] 2390 	add	hl, sp
    000009DD EB               [ 4] 2391 	ex	de, hl
    000009DE 79               [ 4] 2392 	ld	a, c
    000009DF CDrBAr06         [17] 2393 	call	_Print_ValidatePattern
                                   2394 ;C:\MSX\MSXgl-1.4.1\engine/src/print.c:654: u8* l = (u8*)g_HeapStartAddress;
    000009E2 ED 4Br00r00      [20] 2395 	ld	bc, (_g_HeapStartAddress)
                                   2396 ;C:\MSX\MSXgl-1.4.1\engine/src/print.c:655: for (u8 j = 0; j < PRINT_H(PRINT_DATA.PatternY); ++j) // Unpack each 6/8-bits line to buffer and send it to VRAM
    000009E6 1E 00            [ 7] 2397 	ld	e, #0x00
    000009E8                       2398 00105$:
    000009E8 21r01r00         [10] 2399 	ld	hl, #(_g_PrintData + 1)
    000009EB 6E               [ 7] 2400 	ld	l, (hl)
                                   2401 ;	spillPairReg hl
    000009EC 7B               [ 4] 2402 	ld	a, e
    000009ED 95               [ 4] 2403 	sub	a, l
    000009EE 30 42            [12] 2404 	jr	NC, 00101$
                                   2405 ;C:\MSX\MSXgl-1.4.1\engine/src/print.c:658: Print_InitColorBuffer(PRINT_DATA.TextColor[j], PRINT_DATA.BGColor);
    000009F0 21r14r00         [10] 2406 	ld	hl, #_g_PrintData + 20
    000009F3 56               [ 7] 2407 	ld	d, (hl)
    000009F4 3Er08            [ 7] 2408 	ld	a, #<((_g_PrintData + 8))
    000009F6 83               [ 4] 2409 	add	a, e
    000009F7 6F               [ 4] 2410 	ld	l, a
                                   2411 ;	spillPairReg hl
                                   2412 ;	spillPairReg hl
    000009F8 3Es00            [ 7] 2413 	ld	a, #>((_g_PrintData + 8))
    000009FA CE 00            [ 7] 2414 	adc	a, #0x00
    000009FC 67               [ 4] 2415 	ld	h, a
    000009FD 66               [ 7] 2416 	ld	h, (hl)
                                   2417 ;	spillPairReg hl
    000009FE C5               [11] 2418 	push	bc
    000009FF D5               [11] 2419 	push	de
    00000A00 6A               [ 4] 2420 	ld	l, d
                                   2421 ;	spillPairReg hl
                                   2422 ;	spillPairReg hl
    00000A01 7C               [ 4] 2423 	ld	a, h
    00000A02 CDrFAr02         [17] 2424 	call	_Print_InitColorBuffer
    00000A05 D1               [10] 2425 	pop	de
    00000A06 C1               [10] 2426 	pop	bc
                                   2427 ;C:\MSX\MSXgl-1.4.1\engine/src/print.c:660: u8 f = patterns[j];
    00000A07 E1               [10] 2428 	pop	hl
    00000A08 E5               [11] 2429 	push	hl
    00000A09 16 00            [ 7] 2430 	ld	d, #0x00
    00000A0B 19               [11] 2431 	add	hl, de
    00000A0C 56               [ 7] 2432 	ld	d, (hl)
                                   2433 ;C:\MSX\MSXgl-1.4.1\engine/src/print.c:661: *l++ = PRINT_DATA.Buffer[f >> 4];
    00000A0D 7A               [ 4] 2434 	ld	a, d
    00000A0E 07               [ 4] 2435 	rlca
    00000A0F 07               [ 4] 2436 	rlca
    00000A10 07               [ 4] 2437 	rlca
    00000A11 07               [ 4] 2438 	rlca
    00000A12 E6 0F            [ 7] 2439 	and	a, #0x0f
    00000A14 C6r2A            [ 7] 2440 	add	a, #<((_g_PrintData + 42))
    00000A16 6F               [ 4] 2441 	ld	l, a
                                   2442 ;	spillPairReg hl
                                   2443 ;	spillPairReg hl
    00000A17 3E 00            [ 7] 2444 	ld	a, #0x00
    00000A19 CEs00            [ 7] 2445 	adc	a, #>((_g_PrintData + 42))
    00000A1B 67               [ 4] 2446 	ld	h, a
    00000A1C 7E               [ 7] 2447 	ld	a, (hl)
    00000A1D 02               [ 7] 2448 	ld	(bc), a
    00000A1E 03               [ 6] 2449 	inc	bc
                                   2450 ;C:\MSX\MSXgl-1.4.1\engine/src/print.c:662: *l++ = PRINT_DATA.Buffer[f & 0x0F];
    00000A1F 7A               [ 4] 2451 	ld	a, d
    00000A20 E6 0F            [ 7] 2452 	and	a, #0x0f
    00000A22 16 00            [ 7] 2453 	ld	d, #0x00
    00000A24 C6r2A            [ 7] 2454 	add	a, #<((_g_PrintData + 42))
    00000A26 6F               [ 4] 2455 	ld	l, a
                                   2456 ;	spillPairReg hl
                                   2457 ;	spillPairReg hl
    00000A27 7A               [ 4] 2458 	ld	a, d
    00000A28 CEs00            [ 7] 2459 	adc	a, #>((_g_PrintData + 42))
    00000A2A 67               [ 4] 2460 	ld	h, a
                                   2461 ;	spillPairReg hl
                                   2462 ;	spillPairReg hl
    00000A2B 7E               [ 7] 2463 	ld	a, (hl)
    00000A2C 02               [ 7] 2464 	ld	(bc), a
    00000A2D 03               [ 6] 2465 	inc	bc
                                   2466 ;C:\MSX\MSXgl-1.4.1\engine/src/print.c:655: for (u8 j = 0; j < PRINT_H(PRINT_DATA.PatternY); ++j) // Unpack each 6/8-bits line to buffer and send it to VRAM
    00000A2E 1C               [ 4] 2467 	inc	e
    00000A2F C3rE8r09         [10] 2468 	jp	00105$
    00000A32                       2469 00101$:
                                   2470 ;C:\MSX\MSXgl-1.4.1\engine/src/print.c:664: VDP_CommandHMMC((u8*)g_HeapStartAddress, PRINT_DATA.CursorX, PRINT_DATA.CursorY, 8, PRINT_H(PRINT_DATA.PatternY));
    00000A32 DD 75 FC         [19] 2471 	ld	-4 (ix), l
    00000A35 DD 36 FD 00      [19] 2472 	ld	-3 (ix), #0x00
    00000A39 3Ar07r00         [13] 2473 	ld	a, (#_g_PrintData + 7)
    00000A3C DD 77 FE         [19] 2474 	ld	-2 (ix), a
    00000A3F DD 36 FF 00      [19] 2475 	ld	-1 (ix), #0x00
    00000A43 ED 4Br05r00      [20] 2476 	ld	bc, (#_g_PrintData + 5)
    00000A47 ED 5Br00r00      [20] 2477 	ld	de, (_g_HeapStartAddress)
                                   2478 ;C:\MSX\MSXgl-1.4.1\engine/src/vdp_inl.h:23: g_VDP_Command.DX = dx;
    00000A4B ED 43r04r00      [20] 2479 	ld	((_g_VDP_Command + 4)), bc
                                   2480 ;C:\MSX\MSXgl-1.4.1\engine/src/vdp_inl.h:24: g_VDP_Command.DY = dy;
    00000A4F 21r06r00         [10] 2481 	ld	hl, #(_g_VDP_Command + 6)
    00000A52 DD 7E FE         [19] 2482 	ld	a, -2 (ix)
    00000A55 77               [ 7] 2483 	ld	(hl), a
    00000A56 23               [ 6] 2484 	inc	hl
    00000A57 DD 7E FF         [19] 2485 	ld	a, -1 (ix)
    00000A5A 77               [ 7] 2486 	ld	(hl), a
                                   2487 ;C:\MSX\MSXgl-1.4.1\engine/src/vdp_inl.h:25: g_VDP_Command.NX = nx;
    00000A5B 21 08 00         [10] 2488 	ld	hl, #0x0008
    00000A5E 22r08r00         [16] 2489 	ld	((_g_VDP_Command + 8)), hl
                                   2490 ;C:\MSX\MSXgl-1.4.1\engine/src/vdp_inl.h:26: g_VDP_Command.NY = ny;
    00000A61 21r0Ar00         [10] 2491 	ld	hl, #(_g_VDP_Command + 10)
    00000A64 DD 7E FC         [19] 2492 	ld	a, -4 (ix)
    00000A67 77               [ 7] 2493 	ld	(hl), a
    00000A68 23               [ 6] 2494 	inc	hl
    00000A69 DD 7E FD         [19] 2495 	ld	a, -3 (ix)
    00000A6C 77               [ 7] 2496 	ld	(hl), a
                                   2497 ;C:\MSX\MSXgl-1.4.1\engine/src/vdp_inl.h:27: g_VDP_Command.CLR = *addr;
    00000A6D 1A               [ 7] 2498 	ld	a, (de)
    00000A6E 32r0Cr00         [13] 2499 	ld	(#(_g_VDP_Command + 12)),a
                                   2500 ;C:\MSX\MSXgl-1.4.1\engine/src/vdp_inl.h:28: g_VDP_Command.ARG = arg; 
    00000A71 21r0Dr00         [10] 2501 	ld	hl, #(_g_VDP_Command + 13)
    00000A74 36 00            [10] 2502 	ld	(hl), #0x00
                                   2503 ;C:\MSX\MSXgl-1.4.1\engine/src/vdp_inl.h:29: g_VDP_Command.CMD = VDP_CMD_HMMC;
    00000A76 21r0Er00         [10] 2504 	ld	hl, #(_g_VDP_Command + 14)
    00000A79 36 F0            [10] 2505 	ld	(hl), #0xf0
                                   2506 ;C:\MSX\MSXgl-1.4.1\engine/src/vdp_inl.h:30: VDP_CommandSetupR36();
    00000A7B D5               [11] 2507 	push	de
    00000A7C CDr00r00         [17] 2508 	call	_VDP_CommandSetupR36
    00000A7F D1               [10] 2509 	pop	de
                                   2510 ;C:\MSX\MSXgl-1.4.1\engine/src/vdp_inl.h:31: VDP_CommandWriteLoop(addr);
    00000A80 EB               [ 4] 2511 	ex	de, hl
    00000A81 CDr00r00         [17] 2512 	call	_VDP_CommandWriteLoop
                                   2513 ;C:\MSX\MSXgl-1.4.1\engine/src/print.c:664: VDP_CommandHMMC((u8*)g_HeapStartAddress, PRINT_DATA.CursorX, PRINT_DATA.CursorY, 8, PRINT_H(PRINT_DATA.PatternY));
                                   2514 ;C:\MSX\MSXgl-1.4.1\engine/src/print.c:665: }
    00000A84 DD F9            [10] 2515 	ld	sp, ix
    00000A86 DD E1            [14] 2516 	pop	ix
    00000A88 C9               [10] 2517 	ret
                                   2518 ;C:\MSX\MSXgl-1.4.1\engine/src/print.c:671: void DrawChar_Trans(u8 chr)
                                   2519 ;	---------------------------------
                                   2520 ; Function DrawChar_Trans
                                   2521 ; ---------------------------------
    00000A89                       2522 _DrawChar_Trans::
    00000A89 DD E5            [15] 2523 	push	ix
    00000A8B DD 21 00 00      [14] 2524 	ld	ix,#0
    00000A8F DD 39            [15] 2525 	add	ix,sp
    00000A91 21 FB FF         [10] 2526 	ld	hl, #-5
    00000A94 39               [11] 2527 	add	hl, sp
    00000A95 F9               [ 6] 2528 	ld	sp, hl
    00000A96 4F               [ 4] 2529 	ld	c, a
                                   2530 ;C:\MSX\MSXgl-1.4.1\engine/src/print.c:673: const u8* patterns = PRINT_DATA.FontAddr + chr * PRINT_H(PRINT_DATA.PatternY); // Get character patterns' base address
    00000A97 ED 5Br1Fr00      [20] 2531 	ld	de, (#_g_PrintData + 31)
    00000A9B 3Ar01r00         [13] 2532 	ld	a, (#(_g_PrintData + 1) + 0)
    00000A9E D5               [11] 2533 	push	de
    00000A9F 5F               [ 4] 2534 	ld	e, a
    00000AA0 61               [ 4] 2535 	ld	h, c
                                   2536 ;	spillPairReg hl
                                   2537 ;	spillPairReg hl
    00000AA1 2E 00            [ 7] 2538 	ld	l, #0x00
    00000AA3 55               [ 4] 2539 	ld	d, l
    00000AA4 06 08            [ 7] 2540 	ld	b, #0x08
    00000AA6                       2541 00330$:
    00000AA6 29               [11] 2542 	add	hl, hl
    00000AA7 30 01            [12] 2543 	jr	NC, 00331$
    00000AA9 19               [11] 2544 	add	hl, de
    00000AAA                       2545 00331$:
    00000AAA 10 FA            [13] 2546 	djnz	00330$
    00000AAC D1               [10] 2547 	pop	de
    00000AAD 19               [11] 2548 	add	hl, de
    00000AAE DD 75 FD         [19] 2549 	ld	-3 (ix), l
    00000AB1 DD 74 FE         [19] 2550 	ld	-2 (ix), h
                                   2551 ;C:\MSX\MSXgl-1.4.1\engine/src/print.c:675: chr = Print_ValidatePattern(chr, &patterns);
    00000AB4 21 02 00         [10] 2552 	ld	hl, #2
    00000AB7 39               [11] 2553 	add	hl, sp
    00000AB8 EB               [ 4] 2554 	ex	de, hl
    00000AB9 79               [ 4] 2555 	ld	a, c
    00000ABA CDrBAr06         [17] 2556 	call	_Print_ValidatePattern
                                   2557 ;C:\MSX\MSXgl-1.4.1\engine/src/print.c:678: if (PRINT_DATA.FX & PRINT_FX_SHADOW)
    00000ABD 3Ar26r00         [13] 2558 	ld	a, (#(_g_PrintData + 38) + 0)
    00000AC0 0F               [ 4] 2559 	rrca
    00000AC1 D2rBAr0B         [10] 2560 	jp	NC,00119$
                                   2561 ;C:\MSX\MSXgl-1.4.1\engine/src/print.c:680: g_VDP_Command.DY = PRINT_DATA.CursorY + PRINT_DATA.ShadowOffsetY - 3;
    00000AC4 3Ar07r00         [13] 2562 	ld	a, (#_g_PrintData + 7)
    00000AC7 4F               [ 4] 2563 	ld	c, a
    00000AC8 06 00            [ 7] 2564 	ld	b, #0x00
    00000ACA 3Ar27r00         [13] 2565 	ld	a, (#(_g_PrintData + 39) + 0)
    00000ACD 0F               [ 4] 2566 	rrca
    00000ACE 0F               [ 4] 2567 	rrca
    00000ACF 0F               [ 4] 2568 	rrca
    00000AD0 E6 07            [ 7] 2569 	and	a, #0x07
    00000AD2 6F               [ 4] 2570 	ld	l, a
                                   2571 ;	spillPairReg hl
                                   2572 ;	spillPairReg hl
    00000AD3 26 00            [ 7] 2573 	ld	h, #0x00
                                   2574 ;	spillPairReg hl
                                   2575 ;	spillPairReg hl
    00000AD5 09               [11] 2576 	add	hl, bc
    00000AD6 01 FD FF         [10] 2577 	ld	bc, #0xfffd
    00000AD9 09               [11] 2578 	add	hl,bc
    00000ADA 4D               [ 4] 2579 	ld	c, l
    00000ADB 7C               [ 4] 2580 	ld	a,h
    00000ADC 47               [ 4] 2581 	ld	b,a
    00000ADD ED 43r06r00      [20] 2582 	ld	((_g_VDP_Command + 6)), bc
                                   2583 ;C:\MSX\MSXgl-1.4.1\engine/src/print.c:681: g_VDP_Command.CLR = PRINT_DATA.ShadowColor;
    00000AE1 01r0Cr00         [10] 2584 	ld	bc, #_g_VDP_Command + 12
    00000AE4 3Ar28r00         [13] 2585 	ld	a, (#_g_PrintData + 40)
    00000AE7 02               [ 7] 2586 	ld	(bc), a
                                   2587 ;C:\MSX\MSXgl-1.4.1\engine/src/print.c:682: g_VDP_Command.ARG = 0;
    00000AE8 21r0Dr00         [10] 2588 	ld	hl, #(_g_VDP_Command + 13)
    00000AEB 36 00            [10] 2589 	ld	(hl), #0x00
                                   2590 ;C:\MSX\MSXgl-1.4.1\engine/src/print.c:683: g_VDP_Command.CMD = VDP_CMD_PSET + 0;
    00000AED 21r0Er00         [10] 2591 	ld	hl, #(_g_VDP_Command + 14)
    00000AF0 36 50            [10] 2592 	ld	(hl), #0x50
                                   2593 ;C:\MSX\MSXgl-1.4.1\engine/src/print.c:684: for (u8 j = 0; j < PRINT_H(PRINT_DATA.PatternY); ++j)
    00000AF2 DD 36 FF 00      [19] 2594 	ld	-1 (ix), #0x00
    00000AF6                       2595 00157$:
    00000AF6 21r01r00         [10] 2596 	ld	hl, #(_g_PrintData + 1)
    00000AF9 DD 7E FF         [19] 2597 	ld	a,-1 (ix)
    00000AFC 96               [ 7] 2598 	sub	a,(hl)
    00000AFD D2rBAr0B         [10] 2599 	jp	NC, 00119$
                                   2600 ;C:\MSX\MSXgl-1.4.1\engine/src/print.c:686: g_VDP_Command.DX = PRINT_DATA.CursorX + PRINT_DATA.ShadowOffsetX - 3;
    00000B00 ED 4Br05r00      [20] 2601 	ld	bc, (#_g_PrintData + 5)
    00000B04 3Ar27r00         [13] 2602 	ld	a, (#(_g_PrintData + 39) + 0)
    00000B07 E6 07            [ 7] 2603 	and	a, #0x07
    00000B09 6F               [ 4] 2604 	ld	l, a
                                   2605 ;	spillPairReg hl
                                   2606 ;	spillPairReg hl
    00000B0A 26 00            [ 7] 2607 	ld	h, #0x00
                                   2608 ;	spillPairReg hl
                                   2609 ;	spillPairReg hl
    00000B0C 09               [11] 2610 	add	hl, bc
    00000B0D 01 FD FF         [10] 2611 	ld	bc, #0xfffd
    00000B10 09               [11] 2612 	add	hl,bc
    00000B11 4D               [ 4] 2613 	ld	c, l
    00000B12 7C               [ 4] 2614 	ld	a,h
    00000B13 47               [ 4] 2615 	ld	b,a
    00000B14 ED 43r04r00      [20] 2616 	ld	((_g_VDP_Command + 4)), bc
                                   2617 ;C:\MSX\MSXgl-1.4.1\engine/src/print.c:688: u8 f = patterns[j];
    00000B18 DD 7E FD         [19] 2618 	ld	a, -3 (ix)
    00000B1B DD 86 FF         [19] 2619 	add	a, -1 (ix)
    00000B1E 6F               [ 4] 2620 	ld	l, a
                                   2621 ;	spillPairReg hl
                                   2622 ;	spillPairReg hl
    00000B1F DD 7E FE         [19] 2623 	ld	a, -2 (ix)
    00000B22 CE 00            [ 7] 2624 	adc	a, #0x00
    00000B24 67               [ 4] 2625 	ld	h, a
    00000B25 4E               [ 7] 2626 	ld	c, (hl)
                                   2627 ;C:\MSX\MSXgl-1.4.1\engine/src/print.c:689: if (f & BIT_7) VDP_CommandSetupR36(); g_VDP_Command.DX++;
    00000B26 CB 79            [ 8] 2628 	bit	7, c
    00000B28 28 05            [12] 2629 	jr	Z, 00102$
    00000B2A C5               [11] 2630 	push	bc
    00000B2B CDr00r00         [17] 2631 	call	_VDP_CommandSetupR36
    00000B2E C1               [10] 2632 	pop	bc
    00000B2F                       2633 00102$:
    00000B2F ED 5Br04r00      [20] 2634 	ld	de, (#(_g_VDP_Command + 4) + 0)
    00000B33 13               [ 6] 2635 	inc	de
    00000B34 ED 53r04r00      [20] 2636 	ld	((_g_VDP_Command + 4)), de
                                   2637 ;C:\MSX\MSXgl-1.4.1\engine/src/print.c:690: if (f & BIT_6) VDP_CommandSetupR36(); g_VDP_Command.DX++;
    00000B38 CB 71            [ 8] 2638 	bit	6, c
    00000B3A 28 05            [12] 2639 	jr	Z, 00104$
    00000B3C C5               [11] 2640 	push	bc
    00000B3D CDr00r00         [17] 2641 	call	_VDP_CommandSetupR36
    00000B40 C1               [10] 2642 	pop	bc
    00000B41                       2643 00104$:
    00000B41 ED 5Br04r00      [20] 2644 	ld	de, (#(_g_VDP_Command + 4) + 0)
    00000B45 13               [ 6] 2645 	inc	de
    00000B46 ED 53r04r00      [20] 2646 	ld	((_g_VDP_Command + 4)), de
                                   2647 ;C:\MSX\MSXgl-1.4.1\engine/src/print.c:691: if (f & BIT_5) VDP_CommandSetupR36(); g_VDP_Command.DX++;
    00000B4A CB 69            [ 8] 2648 	bit	5, c
    00000B4C 28 05            [12] 2649 	jr	Z, 00106$
    00000B4E C5               [11] 2650 	push	bc
    00000B4F CDr00r00         [17] 2651 	call	_VDP_CommandSetupR36
    00000B52 C1               [10] 2652 	pop	bc
    00000B53                       2653 00106$:
    00000B53 ED 5Br04r00      [20] 2654 	ld	de, (#(_g_VDP_Command + 4) + 0)
    00000B57 13               [ 6] 2655 	inc	de
    00000B58 ED 53r04r00      [20] 2656 	ld	((_g_VDP_Command + 4)), de
                                   2657 ;C:\MSX\MSXgl-1.4.1\engine/src/print.c:692: if (f & BIT_4) VDP_CommandSetupR36(); g_VDP_Command.DX++;
    00000B5C CB 61            [ 8] 2658 	bit	4, c
    00000B5E 28 05            [12] 2659 	jr	Z, 00108$
    00000B60 C5               [11] 2660 	push	bc
    00000B61 CDr00r00         [17] 2661 	call	_VDP_CommandSetupR36
    00000B64 C1               [10] 2662 	pop	bc
    00000B65                       2663 00108$:
    00000B65 ED 5Br04r00      [20] 2664 	ld	de, (#(_g_VDP_Command + 4) + 0)
    00000B69 13               [ 6] 2665 	inc	de
    00000B6A ED 53r04r00      [20] 2666 	ld	((_g_VDP_Command + 4)), de
                                   2667 ;C:\MSX\MSXgl-1.4.1\engine/src/print.c:693: if (f & BIT_3) VDP_CommandSetupR36(); g_VDP_Command.DX++;
    00000B6E CB 59            [ 8] 2668 	bit	3, c
    00000B70 28 05            [12] 2669 	jr	Z, 00110$
    00000B72 C5               [11] 2670 	push	bc
    00000B73 CDr00r00         [17] 2671 	call	_VDP_CommandSetupR36
    00000B76 C1               [10] 2672 	pop	bc
    00000B77                       2673 00110$:
    00000B77 ED 5Br04r00      [20] 2674 	ld	de, (#(_g_VDP_Command + 4) + 0)
    00000B7B 13               [ 6] 2675 	inc	de
    00000B7C ED 53r04r00      [20] 2676 	ld	((_g_VDP_Command + 4)), de
                                   2677 ;C:\MSX\MSXgl-1.4.1\engine/src/print.c:694: if (f & BIT_2) VDP_CommandSetupR36(); g_VDP_Command.DX++;
    00000B80 CB 51            [ 8] 2678 	bit	2, c
    00000B82 28 05            [12] 2679 	jr	Z, 00112$
    00000B84 C5               [11] 2680 	push	bc
    00000B85 CDr00r00         [17] 2681 	call	_VDP_CommandSetupR36
    00000B88 C1               [10] 2682 	pop	bc
    00000B89                       2683 00112$:
    00000B89 ED 5Br04r00      [20] 2684 	ld	de, (#(_g_VDP_Command + 4) + 0)
    00000B8D 13               [ 6] 2685 	inc	de
    00000B8E ED 53r04r00      [20] 2686 	ld	((_g_VDP_Command + 4)), de
                                   2687 ;C:\MSX\MSXgl-1.4.1\engine/src/print.c:695: if (f & BIT_1) VDP_CommandSetupR36(); g_VDP_Command.DX++;
    00000B92 CB 49            [ 8] 2688 	bit	1, c
    00000B94 28 05            [12] 2689 	jr	Z, 00114$
    00000B96 C5               [11] 2690 	push	bc
    00000B97 CDr00r00         [17] 2691 	call	_VDP_CommandSetupR36
    00000B9A C1               [10] 2692 	pop	bc
    00000B9B                       2693 00114$:
    00000B9B ED 5Br04r00      [20] 2694 	ld	de, (#(_g_VDP_Command + 4) + 0)
    00000B9F 13               [ 6] 2695 	inc	de
    00000BA0 ED 53r04r00      [20] 2696 	ld	((_g_VDP_Command + 4)), de
                                   2697 ;C:\MSX\MSXgl-1.4.1\engine/src/print.c:696: if (f & BIT_0) VDP_CommandSetupR36();
    00000BA4 CB 41            [ 8] 2698 	bit	0, c
    00000BA6 28 03            [12] 2699 	jr	Z, 00116$
    00000BA8 CDr00r00         [17] 2700 	call	_VDP_CommandSetupR36
    00000BAB                       2701 00116$:
                                   2702 ;C:\MSX\MSXgl-1.4.1\engine/src/print.c:697: g_VDP_Command.DY++;
    00000BAB ED 4Br06r00      [20] 2703 	ld	bc, (#(_g_VDP_Command + 6) + 0)
    00000BAF 03               [ 6] 2704 	inc	bc
    00000BB0 ED 43r06r00      [20] 2705 	ld	((_g_VDP_Command + 6)), bc
                                   2706 ;C:\MSX\MSXgl-1.4.1\engine/src/print.c:684: for (u8 j = 0; j < PRINT_H(PRINT_DATA.PatternY); ++j)
    00000BB4 DD 34 FF         [23] 2707 	inc	-1 (ix)
    00000BB7 C3rF6r0A         [10] 2708 	jp	00157$
    00000BBA                       2709 00119$:
                                   2710 ;C:\MSX\MSXgl-1.4.1\engine/src/print.c:702: if (PRINT_DATA.FX & PRINT_FX_OUTLINE)
    00000BBA 3Ar26r00         [13] 2711 	ld	a, (#(_g_PrintData + 38) + 0)
    00000BBD CB 4F            [ 8] 2712 	bit	1, a
    00000BBF CArA0r0C         [10] 2713 	jp	Z,00138$
                                   2714 ;C:\MSX\MSXgl-1.4.1\engine/src/print.c:704: g_VDP_Command.DY = PRINT_DATA.CursorY - 1;
    00000BC2 3Ar07r00         [13] 2715 	ld	a, (#_g_PrintData + 7)
    00000BC5 06 00            [ 7] 2716 	ld	b, #0x00
    00000BC7 4F               [ 4] 2717 	ld	c, a
    00000BC8 0B               [ 6] 2718 	dec	bc
    00000BC9 ED 43r06r00      [20] 2719 	ld	((_g_VDP_Command + 6)), bc
                                   2720 ;C:\MSX\MSXgl-1.4.1\engine/src/print.c:705: g_VDP_Command.NX = 3;
    00000BCD 21 03 00         [10] 2721 	ld	hl, #0x0003
    00000BD0 22r08r00         [16] 2722 	ld	((_g_VDP_Command + 8)), hl
                                   2723 ;C:\MSX\MSXgl-1.4.1\engine/src/print.c:706: g_VDP_Command.NY = 3;
    00000BD3 22r0Ar00         [16] 2724 	ld	((_g_VDP_Command + 10)), hl
                                   2725 ;C:\MSX\MSXgl-1.4.1\engine/src/print.c:707: g_VDP_Command.CLR = PRINT_DATA.OutlineColor;
    00000BD6 3Ar29r00         [13] 2726 	ld	a, (#_g_PrintData + 41)
    00000BD9 32r0Cr00         [13] 2727 	ld	(#(_g_VDP_Command + 12)),a
                                   2728 ;C:\MSX\MSXgl-1.4.1\engine/src/print.c:708: g_VDP_Command.ARG = 0;
    00000BDC 21r0Dr00         [10] 2729 	ld	hl, #(_g_VDP_Command + 13)
    00000BDF 36 00            [10] 2730 	ld	(hl), #0x00
                                   2731 ;C:\MSX\MSXgl-1.4.1\engine/src/print.c:709: g_VDP_Command.CMD = (u8)(VDP_CMD_LMMV + 0);
    00000BE1 21r0Er00         [10] 2732 	ld	hl, #(_g_VDP_Command + 14)
    00000BE4 36 80            [10] 2733 	ld	(hl), #0x80
                                   2734 ;C:\MSX\MSXgl-1.4.1\engine/src/print.c:710: for (u8 j = 0; j < PRINT_H(PRINT_DATA.PatternY); ++j)
    00000BE6 0E 00            [ 7] 2735 	ld	c, #0x00
    00000BE8                       2736 00160$:
    00000BE8 21r01r00         [10] 2737 	ld	hl, #(_g_PrintData + 1)
    00000BEB 46               [ 7] 2738 	ld	b, (hl)
    00000BEC 79               [ 4] 2739 	ld	a, c
    00000BED 90               [ 4] 2740 	sub	a, b
    00000BEE D2rA0r0C         [10] 2741 	jp	NC, 00138$
                                   2742 ;C:\MSX\MSXgl-1.4.1\engine/src/print.c:712: g_VDP_Command.DX = PRINT_DATA.CursorX - 1;
    00000BF1 ED 5Br05r00      [20] 2743 	ld	de, (#_g_PrintData + 5)
    00000BF5 1B               [ 6] 2744 	dec	de
    00000BF6 ED 53r04r00      [20] 2745 	ld	((_g_VDP_Command + 4)), de
                                   2746 ;C:\MSX\MSXgl-1.4.1\engine/src/print.c:714: u8 f = patterns[j];
    00000BFA DD 6E FD         [19] 2747 	ld	l, -3 (ix)
    00000BFD DD 66 FE         [19] 2748 	ld	h, -2 (ix)
    00000C00 06 00            [ 7] 2749 	ld	b, #0x00
    00000C02 09               [11] 2750 	add	hl, bc
    00000C03 46               [ 7] 2751 	ld	b, (hl)
                                   2752 ;C:\MSX\MSXgl-1.4.1\engine/src/print.c:715: if (f & BIT_7) VDP_CommandSetupR36(); g_VDP_Command.DX++;
    00000C04 CB 78            [ 8] 2753 	bit	7, b
    00000C06 28 05            [12] 2754 	jr	Z, 00121$
    00000C08 C5               [11] 2755 	push	bc
    00000C09 CDr00r00         [17] 2756 	call	_VDP_CommandSetupR36
    00000C0C C1               [10] 2757 	pop	bc
    00000C0D                       2758 00121$:
    00000C0D ED 5Br04r00      [20] 2759 	ld	de, (#(_g_VDP_Command + 4) + 0)
    00000C11 13               [ 6] 2760 	inc	de
    00000C12 ED 53r04r00      [20] 2761 	ld	((_g_VDP_Command + 4)), de
                                   2762 ;C:\MSX\MSXgl-1.4.1\engine/src/print.c:716: if (f & BIT_6) VDP_CommandSetupR36(); g_VDP_Command.DX++;
    00000C16 CB 70            [ 8] 2763 	bit	6, b
    00000C18 28 05            [12] 2764 	jr	Z, 00123$
    00000C1A C5               [11] 2765 	push	bc
    00000C1B CDr00r00         [17] 2766 	call	_VDP_CommandSetupR36
    00000C1E C1               [10] 2767 	pop	bc
    00000C1F                       2768 00123$:
    00000C1F ED 5Br04r00      [20] 2769 	ld	de, (#(_g_VDP_Command + 4) + 0)
    00000C23 13               [ 6] 2770 	inc	de
    00000C24 ED 53r04r00      [20] 2771 	ld	((_g_VDP_Command + 4)), de
                                   2772 ;C:\MSX\MSXgl-1.4.1\engine/src/print.c:717: if (f & BIT_5) VDP_CommandSetupR36(); g_VDP_Command.DX++;
    00000C28 CB 68            [ 8] 2773 	bit	5, b
    00000C2A 28 05            [12] 2774 	jr	Z, 00125$
    00000C2C C5               [11] 2775 	push	bc
    00000C2D CDr00r00         [17] 2776 	call	_VDP_CommandSetupR36
    00000C30 C1               [10] 2777 	pop	bc
    00000C31                       2778 00125$:
    00000C31 ED 5Br04r00      [20] 2779 	ld	de, (#(_g_VDP_Command + 4) + 0)
    00000C35 13               [ 6] 2780 	inc	de
    00000C36 ED 53r04r00      [20] 2781 	ld	((_g_VDP_Command + 4)), de
                                   2782 ;C:\MSX\MSXgl-1.4.1\engine/src/print.c:718: if (f & BIT_4) VDP_CommandSetupR36(); g_VDP_Command.DX++;
    00000C3A CB 60            [ 8] 2783 	bit	4, b
    00000C3C 28 05            [12] 2784 	jr	Z, 00127$
    00000C3E C5               [11] 2785 	push	bc
    00000C3F CDr00r00         [17] 2786 	call	_VDP_CommandSetupR36
    00000C42 C1               [10] 2787 	pop	bc
    00000C43                       2788 00127$:
    00000C43 ED 5Br04r00      [20] 2789 	ld	de, (#(_g_VDP_Command + 4) + 0)
    00000C47 13               [ 6] 2790 	inc	de
    00000C48 ED 53r04r00      [20] 2791 	ld	((_g_VDP_Command + 4)), de
                                   2792 ;C:\MSX\MSXgl-1.4.1\engine/src/print.c:719: if (f & BIT_3) VDP_CommandSetupR36(); g_VDP_Command.DX++;
    00000C4C CB 58            [ 8] 2793 	bit	3, b
    00000C4E 28 05            [12] 2794 	jr	Z, 00129$
    00000C50 C5               [11] 2795 	push	bc
    00000C51 CDr00r00         [17] 2796 	call	_VDP_CommandSetupR36
    00000C54 C1               [10] 2797 	pop	bc
    00000C55                       2798 00129$:
    00000C55 ED 5Br04r00      [20] 2799 	ld	de, (#(_g_VDP_Command + 4) + 0)
    00000C59 13               [ 6] 2800 	inc	de
    00000C5A ED 53r04r00      [20] 2801 	ld	((_g_VDP_Command + 4)), de
                                   2802 ;C:\MSX\MSXgl-1.4.1\engine/src/print.c:720: if (f & BIT_2) VDP_CommandSetupR36(); g_VDP_Command.DX++;
    00000C5E CB 50            [ 8] 2803 	bit	2, b
    00000C60 28 05            [12] 2804 	jr	Z, 00131$
    00000C62 C5               [11] 2805 	push	bc
    00000C63 CDr00r00         [17] 2806 	call	_VDP_CommandSetupR36
    00000C66 C1               [10] 2807 	pop	bc
    00000C67                       2808 00131$:
    00000C67 ED 5Br04r00      [20] 2809 	ld	de, (#(_g_VDP_Command + 4) + 0)
    00000C6B 13               [ 6] 2810 	inc	de
    00000C6C ED 53r04r00      [20] 2811 	ld	((_g_VDP_Command + 4)), de
                                   2812 ;C:\MSX\MSXgl-1.4.1\engine/src/print.c:721: if (f & BIT_1) VDP_CommandSetupR36(); g_VDP_Command.DX++;
    00000C70 CB 48            [ 8] 2813 	bit	1, b
    00000C72 28 05            [12] 2814 	jr	Z, 00133$
    00000C74 C5               [11] 2815 	push	bc
    00000C75 CDr00r00         [17] 2816 	call	_VDP_CommandSetupR36
    00000C78 C1               [10] 2817 	pop	bc
    00000C79                       2818 00133$:
    00000C79 ED 5Br04r00      [20] 2819 	ld	de, (#(_g_VDP_Command + 4) + 0)
    00000C7D 13               [ 6] 2820 	inc	de
    00000C7E ED 53r04r00      [20] 2821 	ld	((_g_VDP_Command + 4)), de
                                   2822 ;C:\MSX\MSXgl-1.4.1\engine/src/print.c:722: if (f & BIT_0) VDP_CommandSetupR36();
    00000C82 CB 40            [ 8] 2823 	bit	0, b
    00000C84 28 05            [12] 2824 	jr	Z, 00135$
    00000C86 C5               [11] 2825 	push	bc
    00000C87 CDr00r00         [17] 2826 	call	_VDP_CommandSetupR36
    00000C8A C1               [10] 2827 	pop	bc
    00000C8B                       2828 00135$:
                                   2829 ;C:\MSX\MSXgl-1.4.1\engine/src/print.c:723: g_VDP_Command.DY++;
    00000C8B 2Ar06r00         [16] 2830 	ld	hl, (#(_g_VDP_Command + 6) + 0)
    00000C8E 23               [ 6] 2831 	inc	hl
    00000C8F E3               [19] 2832 	ex	(sp), hl
    00000C90 21r06r00         [10] 2833 	ld	hl, #(_g_VDP_Command + 6)
    00000C93 DD 7E FB         [19] 2834 	ld	a, -5 (ix)
    00000C96 77               [ 7] 2835 	ld	(hl), a
    00000C97 23               [ 6] 2836 	inc	hl
    00000C98 DD 7E FC         [19] 2837 	ld	a, -4 (ix)
    00000C9B 77               [ 7] 2838 	ld	(hl), a
                                   2839 ;C:\MSX\MSXgl-1.4.1\engine/src/print.c:710: for (u8 j = 0; j < PRINT_H(PRINT_DATA.PatternY); ++j)
    00000C9C 0C               [ 4] 2840 	inc	c
    00000C9D C3rE8r0B         [10] 2841 	jp	00160$
    00000CA0                       2842 00138$:
                                   2843 ;C:\MSX\MSXgl-1.4.1\engine/src/print.c:732: g_VDP_Command.DY = PRINT_DATA.CursorY;
    00000CA0 3Ar07r00         [13] 2844 	ld	a, (#_g_PrintData + 7)
    00000CA3 4F               [ 4] 2845 	ld	c, a
    00000CA4 06 00            [ 7] 2846 	ld	b, #0x00
    00000CA6 ED 43r06r00      [20] 2847 	ld	((_g_VDP_Command + 6)), bc
                                   2848 ;C:\MSX\MSXgl-1.4.1\engine/src/print.c:733: g_VDP_Command.ARG = 0;
    00000CAA 21r0Dr00         [10] 2849 	ld	hl, #(_g_VDP_Command + 13)
    00000CAD 36 00            [10] 2850 	ld	(hl), #0x00
                                   2851 ;C:\MSX\MSXgl-1.4.1\engine/src/print.c:734: g_VDP_Command.CMD = VDP_CMD_PSET + 0;
    00000CAF 21r0Er00         [10] 2852 	ld	hl, #(_g_VDP_Command + 14)
    00000CB2 36 50            [10] 2853 	ld	(hl), #0x50
                                   2854 ;C:\MSX\MSXgl-1.4.1\engine/src/print.c:738: for (u8 j = 0; j < PRINT_H(PRINT_DATA.PatternY); ++j)
    00000CB4 DD 36 FF 00      [19] 2855 	ld	-1 (ix), #0x00
    00000CB8                       2856 00163$:
    00000CB8 21r01r00         [10] 2857 	ld	hl, #(_g_PrintData + 1)
    00000CBB DD 7E FF         [19] 2858 	ld	a,-1 (ix)
    00000CBE 96               [ 7] 2859 	sub	a,(hl)
    00000CBF D2r7Cr0D         [10] 2860 	jp	NC, 00165$
                                   2861 ;C:\MSX\MSXgl-1.4.1\engine/src/print.c:741: g_VDP_Command.CLR = PRINT_DATA.TextColor[j];
    00000CC2 01r0Cr00         [10] 2862 	ld	bc, #_g_VDP_Command + 12
    00000CC5 3Er08            [ 7] 2863 	ld	a, #<((_g_PrintData + 8))
    00000CC7 DD 86 FF         [19] 2864 	add	a, -1 (ix)
    00000CCA 5F               [ 4] 2865 	ld	e, a
    00000CCB 3Es00            [ 7] 2866 	ld	a, #>((_g_PrintData + 8))
    00000CCD CE 00            [ 7] 2867 	adc	a, #0x00
    00000CCF 57               [ 4] 2868 	ld	d, a
    00000CD0 1A               [ 7] 2869 	ld	a, (de)
    00000CD1 02               [ 7] 2870 	ld	(bc), a
                                   2871 ;C:\MSX\MSXgl-1.4.1\engine/src/print.c:743: g_VDP_Command.DX = PRINT_DATA.CursorX;
    00000CD2 ED 4Br05r00      [20] 2872 	ld	bc, (#_g_PrintData + 5)
    00000CD6 ED 43r04r00      [20] 2873 	ld	((_g_VDP_Command + 4)), bc
                                   2874 ;C:\MSX\MSXgl-1.4.1\engine/src/print.c:745: u8 f = patterns[j];
    00000CDA DD 7E FD         [19] 2875 	ld	a, -3 (ix)
    00000CDD DD 86 FF         [19] 2876 	add	a, -1 (ix)
    00000CE0 6F               [ 4] 2877 	ld	l, a
                                   2878 ;	spillPairReg hl
                                   2879 ;	spillPairReg hl
    00000CE1 DD 7E FE         [19] 2880 	ld	a, -2 (ix)
    00000CE4 CE 00            [ 7] 2881 	adc	a, #0x00
    00000CE6 67               [ 4] 2882 	ld	h, a
    00000CE7 4E               [ 7] 2883 	ld	c, (hl)
                                   2884 ;C:\MSX\MSXgl-1.4.1\engine/src/print.c:746: if (f & BIT_7) VDP_CommandSetupR36(); g_VDP_Command.DX++;
    00000CE8 CB 79            [ 8] 2885 	bit	7, c
    00000CEA 28 05            [12] 2886 	jr	Z, 00140$
    00000CEC C5               [11] 2887 	push	bc
    00000CED CDr00r00         [17] 2888 	call	_VDP_CommandSetupR36
    00000CF0 C1               [10] 2889 	pop	bc
    00000CF1                       2890 00140$:
    00000CF1 ED 5Br04r00      [20] 2891 	ld	de, (#(_g_VDP_Command + 4) + 0)
    00000CF5 13               [ 6] 2892 	inc	de
    00000CF6 ED 53r04r00      [20] 2893 	ld	((_g_VDP_Command + 4)), de
                                   2894 ;C:\MSX\MSXgl-1.4.1\engine/src/print.c:747: if (f & BIT_6) VDP_CommandSetupR36(); g_VDP_Command.DX++;
    00000CFA CB 71            [ 8] 2895 	bit	6, c
    00000CFC 28 05            [12] 2896 	jr	Z, 00142$
    00000CFE C5               [11] 2897 	push	bc
    00000CFF CDr00r00         [17] 2898 	call	_VDP_CommandSetupR36
    00000D02 C1               [10] 2899 	pop	bc
    00000D03                       2900 00142$:
    00000D03 ED 5Br04r00      [20] 2901 	ld	de, (#(_g_VDP_Command + 4) + 0)
    00000D07 13               [ 6] 2902 	inc	de
    00000D08 ED 53r04r00      [20] 2903 	ld	((_g_VDP_Command + 4)), de
                                   2904 ;C:\MSX\MSXgl-1.4.1\engine/src/print.c:748: if (f & BIT_5) VDP_CommandSetupR36(); g_VDP_Command.DX++;
    00000D0C CB 69            [ 8] 2905 	bit	5, c
    00000D0E 28 05            [12] 2906 	jr	Z, 00144$
    00000D10 C5               [11] 2907 	push	bc
    00000D11 CDr00r00         [17] 2908 	call	_VDP_CommandSetupR36
    00000D14 C1               [10] 2909 	pop	bc
    00000D15                       2910 00144$:
    00000D15 ED 5Br04r00      [20] 2911 	ld	de, (#(_g_VDP_Command + 4) + 0)
    00000D19 13               [ 6] 2912 	inc	de
    00000D1A ED 53r04r00      [20] 2913 	ld	((_g_VDP_Command + 4)), de
                                   2914 ;C:\MSX\MSXgl-1.4.1\engine/src/print.c:749: if (f & BIT_4) VDP_CommandSetupR36(); g_VDP_Command.DX++;
    00000D1E CB 61            [ 8] 2915 	bit	4, c
    00000D20 28 05            [12] 2916 	jr	Z, 00146$
    00000D22 C5               [11] 2917 	push	bc
    00000D23 CDr00r00         [17] 2918 	call	_VDP_CommandSetupR36
    00000D26 C1               [10] 2919 	pop	bc
    00000D27                       2920 00146$:
    00000D27 ED 5Br04r00      [20] 2921 	ld	de, (#(_g_VDP_Command + 4) + 0)
    00000D2B 13               [ 6] 2922 	inc	de
    00000D2C ED 53r04r00      [20] 2923 	ld	((_g_VDP_Command + 4)), de
                                   2924 ;C:\MSX\MSXgl-1.4.1\engine/src/print.c:750: if (f & BIT_3) VDP_CommandSetupR36(); g_VDP_Command.DX++;
    00000D30 CB 59            [ 8] 2925 	bit	3, c
    00000D32 28 05            [12] 2926 	jr	Z, 00148$
    00000D34 C5               [11] 2927 	push	bc
    00000D35 CDr00r00         [17] 2928 	call	_VDP_CommandSetupR36
    00000D38 C1               [10] 2929 	pop	bc
    00000D39                       2930 00148$:
    00000D39 ED 5Br04r00      [20] 2931 	ld	de, (#(_g_VDP_Command + 4) + 0)
    00000D3D 13               [ 6] 2932 	inc	de
    00000D3E ED 53r04r00      [20] 2933 	ld	((_g_VDP_Command + 4)), de
                                   2934 ;C:\MSX\MSXgl-1.4.1\engine/src/print.c:751: if (f & BIT_2) VDP_CommandSetupR36(); g_VDP_Command.DX++;
    00000D42 CB 51            [ 8] 2935 	bit	2, c
    00000D44 28 05            [12] 2936 	jr	Z, 00150$
    00000D46 C5               [11] 2937 	push	bc
    00000D47 CDr00r00         [17] 2938 	call	_VDP_CommandSetupR36
    00000D4A C1               [10] 2939 	pop	bc
    00000D4B                       2940 00150$:
    00000D4B ED 5Br04r00      [20] 2941 	ld	de, (#(_g_VDP_Command + 4) + 0)
    00000D4F 13               [ 6] 2942 	inc	de
    00000D50 ED 53r04r00      [20] 2943 	ld	((_g_VDP_Command + 4)), de
                                   2944 ;C:\MSX\MSXgl-1.4.1\engine/src/print.c:752: if (f & BIT_1) VDP_CommandSetupR36(); g_VDP_Command.DX++;
    00000D54 CB 49            [ 8] 2945 	bit	1, c
    00000D56 28 05            [12] 2946 	jr	Z, 00152$
    00000D58 C5               [11] 2947 	push	bc
    00000D59 CDr00r00         [17] 2948 	call	_VDP_CommandSetupR36
    00000D5C C1               [10] 2949 	pop	bc
    00000D5D                       2950 00152$:
    00000D5D ED 5Br04r00      [20] 2951 	ld	de, (#(_g_VDP_Command + 4) + 0)
    00000D61 13               [ 6] 2952 	inc	de
    00000D62 ED 53r04r00      [20] 2953 	ld	((_g_VDP_Command + 4)), de
                                   2954 ;C:\MSX\MSXgl-1.4.1\engine/src/print.c:753: if (f & BIT_0) VDP_CommandSetupR36();
    00000D66 CB 41            [ 8] 2955 	bit	0, c
    00000D68 28 03            [12] 2956 	jr	Z, 00154$
    00000D6A CDr00r00         [17] 2957 	call	_VDP_CommandSetupR36
    00000D6D                       2958 00154$:
                                   2959 ;C:\MSX\MSXgl-1.4.1\engine/src/print.c:754: g_VDP_Command.DY++;
    00000D6D ED 4Br06r00      [20] 2960 	ld	bc, (#(_g_VDP_Command + 6) + 0)
    00000D71 03               [ 6] 2961 	inc	bc
    00000D72 ED 43r06r00      [20] 2962 	ld	((_g_VDP_Command + 6)), bc
                                   2963 ;C:\MSX\MSXgl-1.4.1\engine/src/print.c:738: for (u8 j = 0; j < PRINT_H(PRINT_DATA.PatternY); ++j)
    00000D76 DD 34 FF         [23] 2964 	inc	-1 (ix)
    00000D79 C3rB8r0C         [10] 2965 	jp	00163$
    00000D7C                       2966 00165$:
                                   2967 ;C:\MSX\MSXgl-1.4.1\engine/src/print.c:756: }
    00000D7C DD F9            [10] 2968 	ld	sp, ix
    00000D7E DD E1            [14] 2969 	pop	ix
    00000D80 C9               [10] 2970 	ret
                                   2971 ;C:\MSX\MSXgl-1.4.1\engine/src/print.c:771: void Print_SetVRAMFont(const u8* font, UY y, u8 color, bool trans)
                                   2972 ;	---------------------------------
                                   2973 ; Function Print_SetVRAMFont
                                   2974 ; ---------------------------------
    00000D81                       2975 _Print_SetVRAMFont::
    00000D81 DD E5            [15] 2976 	push	ix
    00000D83 DD 21 00 00      [14] 2977 	ld	ix,#0
    00000D87 DD 39            [15] 2978 	add	ix,sp
    00000D89 FD 21 F6 FF      [14] 2979 	ld	iy, #-10
    00000D8D FD 39            [15] 2980 	add	iy, sp
    00000D8F FD F9            [10] 2981 	ld	sp, iy
    00000D91 EB               [ 4] 2982 	ex	de, hl
                                   2983 ;C:\MSX\MSXgl-1.4.1\engine/src/print.c:773: UX cx = PRINT_DATA.CursorX;
    00000D92 21r05r00         [10] 2984 	ld	hl, #(_g_PrintData + 5)
    00000D95 7E               [ 7] 2985 	ld	a, (hl)
    00000D96 DD 77 F6         [19] 2986 	ld	-10 (ix), a
    00000D99 23               [ 6] 2987 	inc	hl
    00000D9A 7E               [ 7] 2988 	ld	a, (hl)
    00000D9B DD 77 F7         [19] 2989 	ld	-9 (ix), a
                                   2990 ;C:\MSX\MSXgl-1.4.1\engine/src/print.c:774: UY cy = PRINT_DATA.CursorY;
    00000D9E 21r07r00         [10] 2991 	ld	hl, #(_g_PrintData + 7)
    00000DA1 7E               [ 7] 2992 	ld	a, (hl)
    00000DA2 DD 77 F8         [19] 2993 	ld	-8 (ix), a
                                   2994 ;C:\MSX\MSXgl-1.4.1\engine/src/print.c:776: Print_SetFont(font);
    00000DA5 EB               [ 4] 2995 	ex	de, hl
    00000DA6 CDr20r02         [17] 2996 	call	_Print_SetFont
                                   2997 ;C:\MSX\MSXgl-1.4.1\engine/src/print.c:777: Print_Initialize();
    00000DA9 CDrA2r00         [17] 2998 	call	_Print_Initialize
                                   2999 ;C:\MSX\MSXgl-1.4.1\engine/src/print.c:778: Print_SetColor(color, 0x0);
    00000DAC 2E 00            [ 7] 3000 	ld	l, #0x00
                                   3001 ;	spillPairReg hl
                                   3002 ;	spillPairReg hl
    00000DAE DD 7E 05         [19] 3003 	ld	a, 5 (ix)
    00000DB1 CDrBBr04         [17] 3004 	call	_Print_SetColor
                                   3005 ;C:\MSX\MSXgl-1.4.1\engine/src/print.c:781: Print_SetMode(PRINT_MODE_BITMAP_TRANS); // Activate default mode to write font data into VRAM
    00000DB4 3E 01            [ 7] 3006 	ld	a, #0x01
    00000DB6 CDr96r01         [17] 3007 	call	_Print_SetMode
                                   3008 ;C:\MSX\MSXgl-1.4.1\engine/src/print.c:782: PRINT_DATA.FontVRAMY = y;
    00000DB9 21r21r00         [10] 3009 	ld	hl, #(_g_PrintData + 33)
    00000DBC DD 7E 04         [19] 3010 	ld	a, 4 (ix)
    00000DBF 77               [ 7] 3011 	ld	(hl), a
                                   3012 ;C:\MSX\MSXgl-1.4.1\engine/src/print.c:784: u8 nx = PRINT_DATA.ScreenWidth / PRINT_W(PRINT_DATA.UnitX);
    00000DC0 21r1Br00         [10] 3013 	ld	hl, #(_g_PrintData + 27)
    00000DC3 7E               [ 7] 3014 	ld	a, (hl)
    00000DC4 DD 77 FC         [19] 3015 	ld	-4 (ix), a
    00000DC7 23               [ 6] 3016 	inc	hl
    00000DC8 7E               [ 7] 3017 	ld	a, (hl)
    00000DC9 DD 77 FD         [19] 3018 	ld	-3 (ix), a
    00000DCC 3Ar02r00         [13] 3019 	ld	a, (#(_g_PrintData + 2) + 0)
    00000DCF DD 77 FF         [19] 3020 	ld	-1 (ix), a
    00000DD2 DD 77 FE         [19] 3021 	ld	-2 (ix), a
    00000DD5 DD 36 FF 00      [19] 3022 	ld	-1 (ix), #0x00
    00000DD9 5F               [ 4] 3023 	ld	e, a
    00000DDA 16 00            [ 7] 3024 	ld	d, #0x00
    00000DDC DD 6E FC         [19] 3025 	ld	l, -4 (ix)
                                   3026 ;	spillPairReg hl
                                   3027 ;	spillPairReg hl
    00000DDF DD 66 FD         [19] 3028 	ld	h, -3 (ix)
                                   3029 ;	spillPairReg hl
                                   3030 ;	spillPairReg hl
    00000DE2 CDr00r00         [17] 3031 	call	__divuint
    00000DE5 DD 73 FE         [19] 3032 	ld	-2 (ix), e
    00000DE8 DD 72 FF         [19] 3033 	ld	-1 (ix), d
    00000DEB DD 7E FE         [19] 3034 	ld	a, -2 (ix)
    00000DEE DD 77 F9         [19] 3035 	ld	-7 (ix), a
                                   3036 ;C:\MSX\MSXgl-1.4.1\engine/src/print.c:785: for (u16 chr = PRINT_DATA.CharFirst; chr <= PRINT_DATA.CharLast; ++chr)
    00000DF1 3Ar15r00         [13] 3037 	ld	a, (#(_g_PrintData + 21) + 0)
    00000DF4 DD 77 FF         [19] 3038 	ld	-1 (ix), a
    00000DF7 DD 77 FE         [19] 3039 	ld	-2 (ix), a
    00000DFA DD 36 FF 00      [19] 3040 	ld	-1 (ix), #0x00
    00000DFE                       3041 00105$:
    00000DFE 3Ar16r00         [13] 3042 	ld	a, (#_g_PrintData + 22)
    00000E01 DD 77 FD         [19] 3043 	ld	-3 (ix), a
    00000E04 DD 77 FC         [19] 3044 	ld	-4 (ix), a
    00000E07 DD 36 FD 00      [19] 3045 	ld	-3 (ix), #0x00
    00000E0B DD 7E FC         [19] 3046 	ld	a, -4 (ix)
    00000E0E DD 96 FE         [19] 3047 	sub	a, -2 (ix)
    00000E11 DD 7E FD         [19] 3048 	ld	a, -3 (ix)
    00000E14 DD 9E FF         [19] 3049 	sbc	a, -1 (ix)
    00000E17 DArE2r0E         [10] 3050 	jp	C, 00101$
                                   3051 ;C:\MSX\MSXgl-1.4.1\engine/src/print.c:787: u16 idx = chr - PRINT_DATA.CharFirst;
    00000E1A 3Ar15r00         [13] 3052 	ld	a, (#(_g_PrintData + 21) + 0)
    00000E1D 06 00            [ 7] 3053 	ld	b, #0x00
    00000E1F DD 6E FE         [19] 3054 	ld	l, -2 (ix)
                                   3055 ;	spillPairReg hl
                                   3056 ;	spillPairReg hl
    00000E22 DD 66 FF         [19] 3057 	ld	h, -1 (ix)
                                   3058 ;	spillPairReg hl
                                   3059 ;	spillPairReg hl
    00000E25 4F               [ 4] 3060 	ld	c, a
    00000E26 BF               [ 4] 3061 	cp	a, a
    00000E27 ED 42            [15] 3062 	sbc	hl, bc
    00000E29 E5               [11] 3063 	push	hl
    00000E2A FD E1            [14] 3064 	pop	iy
                                   3065 ;C:\MSX\MSXgl-1.4.1\engine/src/print.c:789: PRINT_DATA.CursorX = (idx % nx) * PRINT_W(PRINT_DATA.UnitX);		
    00000E2C DD 7E F9         [19] 3066 	ld	a, -7 (ix)
    00000E2F DD 77 FC         [19] 3067 	ld	-4 (ix), a
    00000E32 DD 36 FD 00      [19] 3068 	ld	-3 (ix), #0x00
    00000E36 FD E5            [15] 3069 	push	iy
    00000E38 DD 5E FC         [19] 3070 	ld	e, -4 (ix)
    00000E3B DD 56 FD         [19] 3071 	ld	d, -3 (ix)
    00000E3E FD E5            [15] 3072 	push	iy
    00000E40 E1               [10] 3073 	pop	hl
    00000E41 CDr00r00         [17] 3074 	call	__moduint
    00000E44 4B               [ 4] 3075 	ld	c, e
    00000E45 42               [ 4] 3076 	ld	b, d
    00000E46 FD E1            [14] 3077 	pop	iy
    00000E48 3Ar02r00         [13] 3078 	ld	a, (#(_g_PrintData + 2) + 0)
    00000E4B 5F               [ 4] 3079 	ld	e, a
    00000E4C 16 00            [ 7] 3080 	ld	d, #0x00
    00000E4E FD E5            [15] 3081 	push	iy
    00000E50 69               [ 4] 3082 	ld	l, c
                                   3083 ;	spillPairReg hl
                                   3084 ;	spillPairReg hl
    00000E51 60               [ 4] 3085 	ld	h, b
                                   3086 ;	spillPairReg hl
                                   3087 ;	spillPairReg hl
    00000E52 CDr00r00         [17] 3088 	call	__mulint
    00000E55 4B               [ 4] 3089 	ld	c, e
    00000E56 42               [ 4] 3090 	ld	b, d
    00000E57 FD E1            [14] 3091 	pop	iy
    00000E59 ED 43r05r00      [20] 3092 	ld	((_g_PrintData + 5)), bc
                                   3093 ;C:\MSX\MSXgl-1.4.1\engine/src/print.c:790: PRINT_DATA.CursorY = (idx / nx) * PRINT_H(PRINT_DATA.PatternY) + y;
    00000E5D C5               [11] 3094 	push	bc
    00000E5E DD 5E FC         [19] 3095 	ld	e, -4 (ix)
    00000E61 DD 56 FD         [19] 3096 	ld	d, -3 (ix)
    00000E64 FD E5            [15] 3097 	push	iy
    00000E66 E1               [10] 3098 	pop	hl
    00000E67 CDr00r00         [17] 3099 	call	__divuint
    00000E6A C1               [10] 3100 	pop	bc
    00000E6B 3Ar01r00         [13] 3101 	ld	a, (#(_g_PrintData + 1) + 0)
    00000E6E C5               [11] 3102 	push	bc
    00000E6F 67               [ 4] 3103 	ld	h, a
                                   3104 ;	spillPairReg hl
                                   3105 ;	spillPairReg hl
    00000E70 2E 00            [ 7] 3106 	ld	l, #0x00
    00000E72 55               [ 4] 3107 	ld	d, l
    00000E73 06 08            [ 7] 3108 	ld	b, #0x08
    00000E75                       3109 00127$:
    00000E75 29               [11] 3110 	add	hl, hl
    00000E76 30 01            [12] 3111 	jr	NC, 00128$
    00000E78 19               [11] 3112 	add	hl, de
    00000E79                       3113 00128$:
    00000E79 10 FA            [13] 3114 	djnz	00127$
    00000E7B C1               [10] 3115 	pop	bc
    00000E7C 7D               [ 4] 3116 	ld	a, l
    00000E7D DD 86 04         [19] 3117 	add	a, 4 (ix)
    00000E80 5F               [ 4] 3118 	ld	e, a
    00000E81 21r07r00         [10] 3119 	ld	hl, #(_g_PrintData + 7)
    00000E84 73               [ 7] 3120 	ld	(hl), e
                                   3121 ;C:\MSX\MSXgl-1.4.1\engine/src/print.c:791: VDP_CommandHMMV(PRINT_DATA.CursorX, PRINT_DATA.CursorY, PRINT_W(PRINT_DATA.UnitX), PRINT_H(PRINT_DATA.PatternY), 0);
    00000E85 3Ar01r00         [13] 3122 	ld	a, (#(_g_PrintData + 1) + 0)
    00000E88 DD 77 FA         [19] 3123 	ld	-6 (ix), a
    00000E8B DD 36 FB 00      [19] 3124 	ld	-5 (ix), #0x00
    00000E8F 3Ar02r00         [13] 3125 	ld	a, (#(_g_PrintData + 2) + 0)
    00000E92 DD 77 FC         [19] 3126 	ld	-4 (ix), a
    00000E95 DD 36 FD 00      [19] 3127 	ld	-3 (ix), #0x00
    00000E99 16 00            [ 7] 3128 	ld	d, #0x00
                                   3129 ;C:\MSX\MSXgl-1.4.1\engine/src/vdp_inl.h:167: g_VDP_Command.DX = dx; 
    00000E9B ED 43r04r00      [20] 3130 	ld	((_g_VDP_Command + 4)), bc
                                   3131 ;C:\MSX\MSXgl-1.4.1\engine/src/vdp_inl.h:168: g_VDP_Command.DY = dy; 
    00000E9F ED 53r06r00      [20] 3132 	ld	((_g_VDP_Command + 6)), de
                                   3133 ;C:\MSX\MSXgl-1.4.1\engine/src/vdp_inl.h:169: g_VDP_Command.NX = nx; 
    00000EA3 21r08r00         [10] 3134 	ld	hl, #(_g_VDP_Command + 8)
    00000EA6 DD 7E FC         [19] 3135 	ld	a, -4 (ix)
    00000EA9 77               [ 7] 3136 	ld	(hl), a
    00000EAA 23               [ 6] 3137 	inc	hl
    00000EAB DD 7E FD         [19] 3138 	ld	a, -3 (ix)
    00000EAE 77               [ 7] 3139 	ld	(hl), a
                                   3140 ;C:\MSX\MSXgl-1.4.1\engine/src/vdp_inl.h:170: g_VDP_Command.NY = ny; 
    00000EAF 21r0Ar00         [10] 3141 	ld	hl, #(_g_VDP_Command + 10)
    00000EB2 DD 7E FA         [19] 3142 	ld	a, -6 (ix)
    00000EB5 77               [ 7] 3143 	ld	(hl), a
    00000EB6 23               [ 6] 3144 	inc	hl
    00000EB7 DD 7E FB         [19] 3145 	ld	a, -5 (ix)
    00000EBA 77               [ 7] 3146 	ld	(hl), a
                                   3147 ;C:\MSX\MSXgl-1.4.1\engine/src/vdp_inl.h:171: g_VDP_Command.CLR = col; 
    00000EBB 21r0Cr00         [10] 3148 	ld	hl, #(_g_VDP_Command + 12)
    00000EBE 36 00            [10] 3149 	ld	(hl), #0x00
                                   3150 ;C:\MSX\MSXgl-1.4.1\engine/src/vdp_inl.h:172: g_VDP_Command.ARG = arg; 
    00000EC0 21r0Dr00         [10] 3151 	ld	hl, #(_g_VDP_Command + 13)
    00000EC3 36 00            [10] 3152 	ld	(hl), #0x00
                                   3153 ;C:\MSX\MSXgl-1.4.1\engine/src/vdp_inl.h:173: g_VDP_Command.CMD = VDP_CMD_HMMV;
    00000EC5 21r0Er00         [10] 3154 	ld	hl, #(_g_VDP_Command + 14)
    00000EC8 36 C0            [10] 3155 	ld	(hl), #0xc0
                                   3156 ;C:\MSX\MSXgl-1.4.1\engine/src/vdp_inl.h:174: VDP_CommandSetupR36();
    00000ECA CDr00r00         [17] 3157 	call	_VDP_CommandSetupR36
                                   3158 ;C:\MSX\MSXgl-1.4.1\engine/src/print.c:792: PRINT_DATA.DrawChar(chr);
    00000ECD 2Ar18r00         [16] 3159 	ld	hl, (#_g_PrintData + 24)
    00000ED0 DD 7E FE         [19] 3160 	ld	a, -2 (ix)
    00000ED3 CDr00r00         [17] 3161 	call	___sdcc_call_hl
                                   3162 ;C:\MSX\MSXgl-1.4.1\engine/src/print.c:785: for (u16 chr = PRINT_DATA.CharFirst; chr <= PRINT_DATA.CharLast; ++chr)
    00000ED6 DD 34 FE         [23] 3163 	inc	-2 (ix)
    00000ED9 C2rFEr0D         [10] 3164 	jp	NZ,00105$
    00000EDC DD 34 FF         [23] 3165 	inc	-1 (ix)
    00000EDF C3rFEr0D         [10] 3166 	jp	00105$
    00000EE2                       3167 00101$:
                                   3168 ;C:\MSX\MSXgl-1.4.1\engine/src/print.c:795: PRINT_DATA.CursorX = cx;
    00000EE2 21r05r00         [10] 3169 	ld	hl, #(_g_PrintData + 5)
    00000EE5 DD 7E F6         [19] 3170 	ld	a, -10 (ix)
    00000EE8 77               [ 7] 3171 	ld	(hl), a
    00000EE9 23               [ 6] 3172 	inc	hl
    00000EEA DD 7E F7         [19] 3173 	ld	a, -9 (ix)
    00000EED 77               [ 7] 3174 	ld	(hl), a
                                   3175 ;C:\MSX\MSXgl-1.4.1\engine/src/print.c:796: PRINT_DATA.CursorY = cy;
    00000EEE 21r07r00         [10] 3176 	ld	hl, #(_g_PrintData + 7)
    00000EF1 DD 7E F8         [19] 3177 	ld	a, -8 (ix)
    00000EF4 77               [ 7] 3178 	ld	(hl), a
                                   3179 ;C:\MSX\MSXgl-1.4.1\engine/src/print.c:798: PRINT_DATA.CharPerLine = PRINT_DATA.ScreenWidth / PRINT_W(PRINT_DATA.UnitX);
    00000EF5 ED 4Br1Br00      [20] 3180 	ld	bc, (#(_g_PrintData + 27) + 0)
    00000EF9 3Ar02r00         [13] 3181 	ld	a, (#(_g_PrintData + 2) + 0)
    00000EFC 5F               [ 4] 3182 	ld	e, a
    00000EFD 16 00            [ 7] 3183 	ld	d, #0x00
    00000EFF 69               [ 4] 3184 	ld	l, c
                                   3185 ;	spillPairReg hl
                                   3186 ;	spillPairReg hl
    00000F00 60               [ 4] 3187 	ld	h, b
                                   3188 ;	spillPairReg hl
                                   3189 ;	spillPairReg hl
    00000F01 CDr00r00         [17] 3190 	call	__divuint
    00000F04 21r22r00         [10] 3191 	ld	hl, #(_g_PrintData + 34)
    00000F07 73               [ 7] 3192 	ld	(hl), e
                                   3193 ;C:\MSX\MSXgl-1.4.1\engine/src/print.c:800: Print_SetMode(trans ? PRINT_MODE_BITMAP_VRAM_TRANS : PRINT_MODE_BITMAP_VRAM);
    00000F08 DD 7E 06         [19] 3194 	ld	a, 6 (ix)
    00000F0B B7               [ 4] 3195 	or	a, a
    00000F0C 28 06            [12] 3196 	jr	Z, 00109$
    00000F0E 01 03 00         [10] 3197 	ld	bc, #0x0003
    00000F11 C3r17r0F         [10] 3198 	jp	00110$
    00000F14                       3199 00109$:
    00000F14 01 02 00         [10] 3200 	ld	bc, #0x0002
    00000F17                       3201 00110$:
    00000F17 79               [ 4] 3202 	ld	a, c
    00000F18 CDr96r01         [17] 3203 	call	_Print_SetMode
                                   3204 ;C:\MSX\MSXgl-1.4.1\engine/src/print.c:801: }
    00000F1B DD F9            [10] 3205 	ld	sp, ix
    00000F1D DD E1            [14] 3206 	pop	ix
    00000F1F E1               [10] 3207 	pop	hl
    00000F20 F1               [10] 3208 	pop	af
    00000F21 33               [ 6] 3209 	inc	sp
    00000F22 E9               [ 4] 3210 	jp	(hl)
                                   3211 ;C:\MSX\MSXgl-1.4.1\engine/src/print.c:807: void DrawChar_VRAM256(u8 chr)
                                   3212 ;	---------------------------------
                                   3213 ; Function DrawChar_VRAM256
                                   3214 ; ---------------------------------
    00000F23                       3215 _DrawChar_VRAM256::
    00000F23 DD E5            [15] 3216 	push	ix
    00000F25 DD 21 00 00      [14] 3217 	ld	ix,#0
    00000F29 DD 39            [15] 3218 	add	ix,sp
    00000F2B 21 F8 FF         [10] 3219 	ld	hl, #-8
    00000F2E 39               [11] 3220 	add	hl, sp
    00000F2F F9               [ 6] 3221 	ld	sp, hl
                                   3222 ;C:\MSX\MSXgl-1.4.1\engine/src/print.c:810: chr = Print_ValidateChar(chr);
    00000F30 CDr6Er06         [17] 3223 	call	_Print_ValidateChar
    00000F33 4F               [ 4] 3224 	ld	c, a
                                   3225 ;C:\MSX\MSXgl-1.4.1\engine/src/print.c:812: u8 idx = chr - PRINT_DATA.CharFirst;
    00000F34 21r15r00         [10] 3226 	ld	hl, #_g_PrintData + 21
    00000F37 46               [ 7] 3227 	ld	b, (hl)
    00000F38 79               [ 4] 3228 	ld	a, c
    00000F39 90               [ 4] 3229 	sub	a, b
    00000F3A 5F               [ 4] 3230 	ld	e, a
                                   3231 ;C:\MSX\MSXgl-1.4.1\engine/src/print.c:813: u16 sx = (idx % PRINT_MOD256) * PRINT_W(PRINT_DATA.UnitX);		
    00000F3B 21r22r00         [10] 3232 	ld	hl, #_g_PrintData + 34
    00000F3E 56               [ 7] 3233 	ld	d, (hl)
    00000F3F D5               [11] 3234 	push	de
    00000F40 6A               [ 4] 3235 	ld	l, d
                                   3236 ;	spillPairReg hl
                                   3237 ;	spillPairReg hl
    00000F41 7B               [ 4] 3238 	ld	a, e
    00000F42 CDr00r00         [17] 3239 	call	__moduchar
    00000F45 7B               [ 4] 3240 	ld	a, e
    00000F46 D1               [10] 3241 	pop	de
    00000F47 21r02r00         [10] 3242 	ld	hl, #_g_PrintData + 2
    00000F4A 4E               [ 7] 3243 	ld	c, (hl)
    00000F4B D5               [11] 3244 	push	de
    00000F4C 59               [ 4] 3245 	ld	e, c
    00000F4D 67               [ 4] 3246 	ld	h, a
                                   3247 ;	spillPairReg hl
                                   3248 ;	spillPairReg hl
    00000F4E 2E 00            [ 7] 3249 	ld	l, #0x00
    00000F50 55               [ 4] 3250 	ld	d, l
    00000F51 06 08            [ 7] 3251 	ld	b, #0x08
    00000F53                       3252 00115$:
    00000F53 29               [11] 3253 	add	hl, hl
    00000F54 30 01            [12] 3254 	jr	NC, 00116$
    00000F56 19               [11] 3255 	add	hl, de
    00000F57                       3256 00116$:
    00000F57 10 FA            [13] 3257 	djnz	00115$
    00000F59 D1               [10] 3258 	pop	de
    00000F5A E3               [19] 3259 	ex	(sp), hl
                                   3260 ;C:\MSX\MSXgl-1.4.1\engine/src/print.c:814: u16 sy = (idx / PRINT_MOD256) * PRINT_H(PRINT_DATA.PatternY) + PRINT_DATA.FontVRAMY;
    00000F5B C5               [11] 3261 	push	bc
    00000F5C 6A               [ 4] 3262 	ld	l, d
                                   3263 ;	spillPairReg hl
                                   3264 ;	spillPairReg hl
    00000F5D 7B               [ 4] 3265 	ld	a, e
    00000F5E CDr00r00         [17] 3266 	call	__divuchar
    00000F61 C1               [10] 3267 	pop	bc
    00000F62 3Ar01r00         [13] 3268 	ld	a, (#_g_PrintData + 1)
    00000F65 DD 77 FF         [19] 3269 	ld	-1 (ix), a
    00000F68 67               [ 4] 3270 	ld	h, a
                                   3271 ;	spillPairReg hl
                                   3272 ;	spillPairReg hl
    00000F69 2E 00            [ 7] 3273 	ld	l, #0x00
    00000F6B 55               [ 4] 3274 	ld	d, l
    00000F6C 06 08            [ 7] 3275 	ld	b, #0x08
    00000F6E                       3276 00117$:
    00000F6E 29               [11] 3277 	add	hl, hl
    00000F6F 30 01            [12] 3278 	jr	NC, 00118$
    00000F71 19               [11] 3279 	add	hl, de
    00000F72                       3280 00118$:
    00000F72 10 FA            [13] 3281 	djnz	00117$
    00000F74 EB               [ 4] 3282 	ex	de, hl
    00000F75 3Ar21r00         [13] 3283 	ld	a, (#_g_PrintData + 33)
    00000F78 6F               [ 4] 3284 	ld	l, a
                                   3285 ;	spillPairReg hl
                                   3286 ;	spillPairReg hl
    00000F79 26 00            [ 7] 3287 	ld	h, #0x00
                                   3288 ;	spillPairReg hl
                                   3289 ;	spillPairReg hl
    00000F7B 19               [11] 3290 	add	hl, de
    00000F7C DD 75 FA         [19] 3291 	ld	-6 (ix), l
    00000F7F DD 74 FB         [19] 3292 	ld	-5 (ix), h
                                   3293 ;C:\MSX\MSXgl-1.4.1\engine/src/print.c:816: if (PRINT_DATA.SourceMode == PRINT_MODE_BITMAP_VRAM)
    00000F82 3Ar1Ar00         [13] 3294 	ld	a, (#_g_PrintData + 26)
    00000F85 E6 0F            [ 7] 3295 	and	a, #0x0f
                                   3296 ;C:\MSX\MSXgl-1.4.1\engine/src/print.c:817: VDP_CommandHMMM(sx, sy, PRINT_DATA.CursorX, PRINT_DATA.CursorY, PRINT_W(PRINT_DATA.UnitX), PRINT_H(PRINT_DATA.PatternY));
    00000F87 DD 5E FF         [19] 3297 	ld	e, -1 (ix)
    00000F8A 16 00            [ 7] 3298 	ld	d, #0x00
    00000F8C DD 71 FE         [19] 3299 	ld	-2 (ix), c
    00000F8F DD 36 FF 00      [19] 3300 	ld	-1 (ix), #0x00
    00000F93 FD 21r00r00      [14] 3301 	ld	iy, #_g_PrintData
    00000F97 21r07r00         [10] 3302 	ld	hl, #_g_PrintData + 7
    00000F9A 4E               [ 7] 3303 	ld	c, (hl)
    00000F9B F5               [11] 3304 	push	af
    00000F9C FD 6E 05         [19] 3305 	ld	l, 5 (iy)
                                   3306 ;	spillPairReg hl
    00000F9F FD 66 06         [19] 3307 	ld	h, 6 (iy)
                                   3308 ;	spillPairReg hl
    00000FA2 F1               [10] 3309 	pop	af
    00000FA3 06 00            [ 7] 3310 	ld	b, #0x00
                                   3311 ;C:\MSX\MSXgl-1.4.1\engine/src/print.c:816: if (PRINT_DATA.SourceMode == PRINT_MODE_BITMAP_VRAM)
    00000FA5 D6 02            [ 7] 3312 	sub	a, #0x02
    00000FA7 20 5A            [12] 3313 	jr	NZ, 00102$
                                   3314 ;C:\MSX\MSXgl-1.4.1\engine/src/print.c:817: VDP_CommandHMMM(sx, sy, PRINT_DATA.CursorX, PRINT_DATA.CursorY, PRINT_W(PRINT_DATA.UnitX), PRINT_H(PRINT_DATA.PatternY));
    00000FA9 DD 73 FC         [19] 3315 	ld	-4 (ix), e
    00000FAC DD 72 FD         [19] 3316 	ld	-3 (ix), d
    00000FAF DD 5E FE         [19] 3317 	ld	e, -2 (ix)
    00000FB2 DD 56 FF         [19] 3318 	ld	d, -1 (ix)
    00000FB5 DD 75 FE         [19] 3319 	ld	-2 (ix), l
    00000FB8 DD 74 FF         [19] 3320 	ld	-1 (ix), h
                                   3321 ;C:\MSX\MSXgl-1.4.1\engine/src/vdp_inl.h:105: g_VDP_Command.SX = sx;
    00000FBB 21r00r00         [10] 3322 	ld	hl, #_g_VDP_Command
    00000FBE DD 7E F8         [19] 3323 	ld	a, -8 (ix)
    00000FC1 77               [ 7] 3324 	ld	(hl), a
    00000FC2 23               [ 6] 3325 	inc	hl
    00000FC3 DD 7E F9         [19] 3326 	ld	a, -7 (ix)
    00000FC6 77               [ 7] 3327 	ld	(hl), a
                                   3328 ;C:\MSX\MSXgl-1.4.1\engine/src/vdp_inl.h:106: g_VDP_Command.SY = sy;
    00000FC7 21r02r00         [10] 3329 	ld	hl, #(_g_VDP_Command + 2)
    00000FCA DD 7E FA         [19] 3330 	ld	a, -6 (ix)
    00000FCD 77               [ 7] 3331 	ld	(hl), a
    00000FCE 23               [ 6] 3332 	inc	hl
    00000FCF DD 7E FB         [19] 3333 	ld	a, -5 (ix)
    00000FD2 77               [ 7] 3334 	ld	(hl), a
                                   3335 ;C:\MSX\MSXgl-1.4.1\engine/src/vdp_inl.h:107: g_VDP_Command.DX = dx;
    00000FD3 21r04r00         [10] 3336 	ld	hl, #(_g_VDP_Command + 4)
    00000FD6 DD 7E FE         [19] 3337 	ld	a, -2 (ix)
    00000FD9 77               [ 7] 3338 	ld	(hl), a
    00000FDA 23               [ 6] 3339 	inc	hl
    00000FDB DD 7E FF         [19] 3340 	ld	a, -1 (ix)
    00000FDE 77               [ 7] 3341 	ld	(hl), a
                                   3342 ;C:\MSX\MSXgl-1.4.1\engine/src/vdp_inl.h:108: g_VDP_Command.DY = dy;
    00000FDF ED 43r06r00      [20] 3343 	ld	((_g_VDP_Command + 6)), bc
                                   3344 ;C:\MSX\MSXgl-1.4.1\engine/src/vdp_inl.h:109: g_VDP_Command.NX = nx;
    00000FE3 ED 53r08r00      [20] 3345 	ld	((_g_VDP_Command + 8)), de
                                   3346 ;C:\MSX\MSXgl-1.4.1\engine/src/vdp_inl.h:110: g_VDP_Command.NY = ny;
    00000FE7 21r0Ar00         [10] 3347 	ld	hl, #(_g_VDP_Command + 10)
    00000FEA DD 7E FC         [19] 3348 	ld	a, -4 (ix)
    00000FED 77               [ 7] 3349 	ld	(hl), a
    00000FEE 23               [ 6] 3350 	inc	hl
    00000FEF DD 7E FD         [19] 3351 	ld	a, -3 (ix)
    00000FF2 77               [ 7] 3352 	ld	(hl), a
                                   3353 ;C:\MSX\MSXgl-1.4.1\engine/src/vdp_inl.h:111: g_VDP_Command.ARG = arg; 
    00000FF3 21r0Dr00         [10] 3354 	ld	hl, #(_g_VDP_Command + 13)
    00000FF6 36 00            [10] 3355 	ld	(hl), #0x00
                                   3356 ;C:\MSX\MSXgl-1.4.1\engine/src/vdp_inl.h:112: g_VDP_Command.CMD = VDP_CMD_HMMM;
    00000FF8 21r0Er00         [10] 3357 	ld	hl, #(_g_VDP_Command + 14)
    00000FFB 36 D0            [10] 3358 	ld	(hl), #0xd0
                                   3359 ;C:\MSX\MSXgl-1.4.1\engine/src/vdp_inl.h:113: VDP_CommandSetupR32();
    00000FFD CDr00r00         [17] 3360 	call	_VDP_CommandSetupR32
                                   3361 ;C:\MSX\MSXgl-1.4.1\engine/src/print.c:817: VDP_CommandHMMM(sx, sy, PRINT_DATA.CursorX, PRINT_DATA.CursorY, PRINT_W(PRINT_DATA.UnitX), PRINT_H(PRINT_DATA.PatternY));
    00001000 C3r5Ar10         [10] 3362 	jp	00108$
    00001003                       3363 00102$:
                                   3364 ;C:\MSX\MSXgl-1.4.1\engine/src/print.c:819: VDP_CommandLMMM(sx, sy, PRINT_DATA.CursorX, PRINT_DATA.CursorY, PRINT_W(PRINT_DATA.UnitX), PRINT_H(PRINT_DATA.PatternY), VDP_OP_TIMP);
    00001003 DD 73 FC         [19] 3365 	ld	-4 (ix), e
    00001006 DD 72 FD         [19] 3366 	ld	-3 (ix), d
    00001009 DD 5E FE         [19] 3367 	ld	e, -2 (ix)
    0000100C DD 56 FF         [19] 3368 	ld	d, -1 (ix)
    0000100F DD 75 FE         [19] 3369 	ld	-2 (ix), l
    00001012 DD 74 FF         [19] 3370 	ld	-1 (ix), h
                                   3371 ;C:\MSX\MSXgl-1.4.1\engine/src/vdp_inl.h:240: g_VDP_Command.SX = sx;
    00001015 21r00r00         [10] 3372 	ld	hl, #_g_VDP_Command
    00001018 DD 7E F8         [19] 3373 	ld	a, -8 (ix)
    0000101B 77               [ 7] 3374 	ld	(hl), a
    0000101C 23               [ 6] 3375 	inc	hl
    0000101D DD 7E F9         [19] 3376 	ld	a, -7 (ix)
    00001020 77               [ 7] 3377 	ld	(hl), a
                                   3378 ;C:\MSX\MSXgl-1.4.1\engine/src/vdp_inl.h:241: g_VDP_Command.SY = sy;
    00001021 21r02r00         [10] 3379 	ld	hl, #(_g_VDP_Command + 2)
    00001024 DD 7E FA         [19] 3380 	ld	a, -6 (ix)
    00001027 77               [ 7] 3381 	ld	(hl), a
    00001028 23               [ 6] 3382 	inc	hl
    00001029 DD 7E FB         [19] 3383 	ld	a, -5 (ix)
    0000102C 77               [ 7] 3384 	ld	(hl), a
                                   3385 ;C:\MSX\MSXgl-1.4.1\engine/src/vdp_inl.h:242: g_VDP_Command.DX = dx;
    0000102D 21r04r00         [10] 3386 	ld	hl, #(_g_VDP_Command + 4)
    00001030 DD 7E FE         [19] 3387 	ld	a, -2 (ix)
    00001033 77               [ 7] 3388 	ld	(hl), a
    00001034 23               [ 6] 3389 	inc	hl
    00001035 DD 7E FF         [19] 3390 	ld	a, -1 (ix)
    00001038 77               [ 7] 3391 	ld	(hl), a
                                   3392 ;C:\MSX\MSXgl-1.4.1\engine/src/vdp_inl.h:243: g_VDP_Command.DY = dy;
    00001039 ED 43r06r00      [20] 3393 	ld	((_g_VDP_Command + 6)), bc
                                   3394 ;C:\MSX\MSXgl-1.4.1\engine/src/vdp_inl.h:244: g_VDP_Command.NX = nx;
    0000103D ED 53r08r00      [20] 3395 	ld	((_g_VDP_Command + 8)), de
                                   3396 ;C:\MSX\MSXgl-1.4.1\engine/src/vdp_inl.h:245: g_VDP_Command.NY = ny;
    00001041 21r0Ar00         [10] 3397 	ld	hl, #(_g_VDP_Command + 10)
    00001044 DD 7E FC         [19] 3398 	ld	a, -4 (ix)
    00001047 77               [ 7] 3399 	ld	(hl), a
    00001048 23               [ 6] 3400 	inc	hl
    00001049 DD 7E FD         [19] 3401 	ld	a, -3 (ix)
    0000104C 77               [ 7] 3402 	ld	(hl), a
                                   3403 ;C:\MSX\MSXgl-1.4.1\engine/src/vdp_inl.h:246: g_VDP_Command.ARG = arg; 
    0000104D 21r0Dr00         [10] 3404 	ld	hl, #(_g_VDP_Command + 13)
    00001050 36 00            [10] 3405 	ld	(hl), #0x00
                                   3406 ;C:\MSX\MSXgl-1.4.1\engine/src/vdp_inl.h:247: g_VDP_Command.CMD = VDP_CMD_LMMM + op;
    00001052 21r0Er00         [10] 3407 	ld	hl, #(_g_VDP_Command + 14)
    00001055 36 98            [10] 3408 	ld	(hl), #0x98
                                   3409 ;C:\MSX\MSXgl-1.4.1\engine/src/vdp_inl.h:248: VDP_CommandSetupR32();
    00001057 CDr00r00         [17] 3410 	call	_VDP_CommandSetupR32
                                   3411 ;C:\MSX\MSXgl-1.4.1\engine/src/print.c:819: VDP_CommandLMMM(sx, sy, PRINT_DATA.CursorX, PRINT_DATA.CursorY, PRINT_W(PRINT_DATA.UnitX), PRINT_H(PRINT_DATA.PatternY), VDP_OP_TIMP);
    0000105A                       3412 00108$:
                                   3413 ;C:\MSX\MSXgl-1.4.1\engine/src/print.c:820: }
    0000105A DD F9            [10] 3414 	ld	sp, ix
    0000105C DD E1            [14] 3415 	pop	ix
    0000105E C9               [10] 3416 	ret
                                   3417 ;C:\MSX\MSXgl-1.4.1\engine/src/print.c:827: void DrawChar_VRAM512(u8 chr)
                                   3418 ;	---------------------------------
                                   3419 ; Function DrawChar_VRAM512
                                   3420 ; ---------------------------------
    0000105F                       3421 _DrawChar_VRAM512::
    0000105F DD E5            [15] 3422 	push	ix
    00001061 DD 21 00 00      [14] 3423 	ld	ix,#0
    00001065 DD 39            [15] 3424 	add	ix,sp
    00001067 21 F8 FF         [10] 3425 	ld	hl, #-8
    0000106A 39               [11] 3426 	add	hl, sp
    0000106B F9               [ 6] 3427 	ld	sp, hl
                                   3428 ;C:\MSX\MSXgl-1.4.1\engine/src/print.c:830: chr = Print_ValidateChar(chr);
    0000106C CDr6Er06         [17] 3429 	call	_Print_ValidateChar
    0000106F 4F               [ 4] 3430 	ld	c, a
                                   3431 ;C:\MSX\MSXgl-1.4.1\engine/src/print.c:832: u8 idx = chr - PRINT_DATA.CharFirst;
    00001070 21r15r00         [10] 3432 	ld	hl, #_g_PrintData + 21
    00001073 46               [ 7] 3433 	ld	b, (hl)
    00001074 79               [ 4] 3434 	ld	a, c
    00001075 90               [ 4] 3435 	sub	a, b
    00001076 5F               [ 4] 3436 	ld	e, a
                                   3437 ;C:\MSX\MSXgl-1.4.1\engine/src/print.c:833: u16 sx = (idx % PRINT_MOD512) * PRINT_W(PRINT_DATA.UnitX);		
    00001077 21r22r00         [10] 3438 	ld	hl, #_g_PrintData + 34
    0000107A 56               [ 7] 3439 	ld	d, (hl)
    0000107B D5               [11] 3440 	push	de
    0000107C 6A               [ 4] 3441 	ld	l, d
                                   3442 ;	spillPairReg hl
                                   3443 ;	spillPairReg hl
    0000107D 7B               [ 4] 3444 	ld	a, e
    0000107E CDr00r00         [17] 3445 	call	__moduchar
    00001081 7B               [ 4] 3446 	ld	a, e
    00001082 D1               [10] 3447 	pop	de
    00001083 21r02r00         [10] 3448 	ld	hl, #_g_PrintData + 2
    00001086 4E               [ 7] 3449 	ld	c, (hl)
    00001087 D5               [11] 3450 	push	de
    00001088 59               [ 4] 3451 	ld	e, c
    00001089 67               [ 4] 3452 	ld	h, a
                                   3453 ;	spillPairReg hl
                                   3454 ;	spillPairReg hl
    0000108A 2E 00            [ 7] 3455 	ld	l, #0x00
    0000108C 55               [ 4] 3456 	ld	d, l
    0000108D 06 08            [ 7] 3457 	ld	b, #0x08
    0000108F                       3458 00115$:
    0000108F 29               [11] 3459 	add	hl, hl
    00001090 30 01            [12] 3460 	jr	NC, 00116$
    00001092 19               [11] 3461 	add	hl, de
    00001093                       3462 00116$:
    00001093 10 FA            [13] 3463 	djnz	00115$
    00001095 D1               [10] 3464 	pop	de
    00001096 E3               [19] 3465 	ex	(sp), hl
                                   3466 ;C:\MSX\MSXgl-1.4.1\engine/src/print.c:834: u16 sy = (idx / PRINT_MOD512) * PRINT_H(PRINT_DATA.PatternY) + PRINT_DATA.FontVRAMY;
    00001097 C5               [11] 3467 	push	bc
    00001098 6A               [ 4] 3468 	ld	l, d
                                   3469 ;	spillPairReg hl
                                   3470 ;	spillPairReg hl
    00001099 7B               [ 4] 3471 	ld	a, e
    0000109A CDr00r00         [17] 3472 	call	__divuchar
    0000109D C1               [10] 3473 	pop	bc
    0000109E 3Ar01r00         [13] 3474 	ld	a, (#_g_PrintData + 1)
    000010A1 DD 77 FF         [19] 3475 	ld	-1 (ix), a
    000010A4 67               [ 4] 3476 	ld	h, a
                                   3477 ;	spillPairReg hl
                                   3478 ;	spillPairReg hl
    000010A5 2E 00            [ 7] 3479 	ld	l, #0x00
    000010A7 55               [ 4] 3480 	ld	d, l
    000010A8 06 08            [ 7] 3481 	ld	b, #0x08
    000010AA                       3482 00117$:
    000010AA 29               [11] 3483 	add	hl, hl
    000010AB 30 01            [12] 3484 	jr	NC, 00118$
    000010AD 19               [11] 3485 	add	hl, de
    000010AE                       3486 00118$:
    000010AE 10 FA            [13] 3487 	djnz	00117$
    000010B0 EB               [ 4] 3488 	ex	de, hl
    000010B1 3Ar21r00         [13] 3489 	ld	a, (#_g_PrintData + 33)
    000010B4 6F               [ 4] 3490 	ld	l, a
                                   3491 ;	spillPairReg hl
                                   3492 ;	spillPairReg hl
    000010B5 26 00            [ 7] 3493 	ld	h, #0x00
                                   3494 ;	spillPairReg hl
                                   3495 ;	spillPairReg hl
    000010B7 19               [11] 3496 	add	hl, de
    000010B8 DD 75 FA         [19] 3497 	ld	-6 (ix), l
    000010BB DD 74 FB         [19] 3498 	ld	-5 (ix), h
                                   3499 ;C:\MSX\MSXgl-1.4.1\engine/src/print.c:836: if (PRINT_DATA.SourceMode == PRINT_MODE_BITMAP_VRAM)
    000010BE 3Ar1Ar00         [13] 3500 	ld	a, (#_g_PrintData + 26)
    000010C1 E6 0F            [ 7] 3501 	and	a, #0x0f
                                   3502 ;C:\MSX\MSXgl-1.4.1\engine/src/print.c:837: VDP_CommandHMMM(sx, sy, PRINT_DATA.CursorX, PRINT_DATA.CursorY, PRINT_W(PRINT_DATA.UnitX), PRINT_H(PRINT_DATA.PatternY));
    000010C3 DD 5E FF         [19] 3503 	ld	e, -1 (ix)
    000010C6 16 00            [ 7] 3504 	ld	d, #0x00
    000010C8 DD 71 FE         [19] 3505 	ld	-2 (ix), c
    000010CB DD 36 FF 00      [19] 3506 	ld	-1 (ix), #0x00
    000010CF FD 21r00r00      [14] 3507 	ld	iy, #_g_PrintData
    000010D3 21r07r00         [10] 3508 	ld	hl, #_g_PrintData + 7
    000010D6 4E               [ 7] 3509 	ld	c, (hl)
    000010D7 F5               [11] 3510 	push	af
    000010D8 FD 6E 05         [19] 3511 	ld	l, 5 (iy)
                                   3512 ;	spillPairReg hl
    000010DB FD 66 06         [19] 3513 	ld	h, 6 (iy)
                                   3514 ;	spillPairReg hl
    000010DE F1               [10] 3515 	pop	af
    000010DF 06 00            [ 7] 3516 	ld	b, #0x00
                                   3517 ;C:\MSX\MSXgl-1.4.1\engine/src/print.c:836: if (PRINT_DATA.SourceMode == PRINT_MODE_BITMAP_VRAM)
    000010E1 D6 02            [ 7] 3518 	sub	a, #0x02
    000010E3 20 5A            [12] 3519 	jr	NZ, 00102$
                                   3520 ;C:\MSX\MSXgl-1.4.1\engine/src/print.c:837: VDP_CommandHMMM(sx, sy, PRINT_DATA.CursorX, PRINT_DATA.CursorY, PRINT_W(PRINT_DATA.UnitX), PRINT_H(PRINT_DATA.PatternY));
    000010E5 DD 73 FC         [19] 3521 	ld	-4 (ix), e
    000010E8 DD 72 FD         [19] 3522 	ld	-3 (ix), d
    000010EB DD 5E FE         [19] 3523 	ld	e, -2 (ix)
    000010EE DD 56 FF         [19] 3524 	ld	d, -1 (ix)
    000010F1 DD 75 FE         [19] 3525 	ld	-2 (ix), l
    000010F4 DD 74 FF         [19] 3526 	ld	-1 (ix), h
                                   3527 ;C:\MSX\MSXgl-1.4.1\engine/src/vdp_inl.h:105: g_VDP_Command.SX = sx;
    000010F7 21r00r00         [10] 3528 	ld	hl, #_g_VDP_Command
    000010FA DD 7E F8         [19] 3529 	ld	a, -8 (ix)
    000010FD 77               [ 7] 3530 	ld	(hl), a
    000010FE 23               [ 6] 3531 	inc	hl
    000010FF DD 7E F9         [19] 3532 	ld	a, -7 (ix)
    00001102 77               [ 7] 3533 	ld	(hl), a
                                   3534 ;C:\MSX\MSXgl-1.4.1\engine/src/vdp_inl.h:106: g_VDP_Command.SY = sy;
    00001103 21r02r00         [10] 3535 	ld	hl, #(_g_VDP_Command + 2)
    00001106 DD 7E FA         [19] 3536 	ld	a, -6 (ix)
    00001109 77               [ 7] 3537 	ld	(hl), a
    0000110A 23               [ 6] 3538 	inc	hl
    0000110B DD 7E FB         [19] 3539 	ld	a, -5 (ix)
    0000110E 77               [ 7] 3540 	ld	(hl), a
                                   3541 ;C:\MSX\MSXgl-1.4.1\engine/src/vdp_inl.h:107: g_VDP_Command.DX = dx;
    0000110F 21r04r00         [10] 3542 	ld	hl, #(_g_VDP_Command + 4)
    00001112 DD 7E FE         [19] 3543 	ld	a, -2 (ix)
    00001115 77               [ 7] 3544 	ld	(hl), a
    00001116 23               [ 6] 3545 	inc	hl
    00001117 DD 7E FF         [19] 3546 	ld	a, -1 (ix)
    0000111A 77               [ 7] 3547 	ld	(hl), a
                                   3548 ;C:\MSX\MSXgl-1.4.1\engine/src/vdp_inl.h:108: g_VDP_Command.DY = dy;
    0000111B ED 43r06r00      [20] 3549 	ld	((_g_VDP_Command + 6)), bc
                                   3550 ;C:\MSX\MSXgl-1.4.1\engine/src/vdp_inl.h:109: g_VDP_Command.NX = nx;
    0000111F ED 53r08r00      [20] 3551 	ld	((_g_VDP_Command + 8)), de
                                   3552 ;C:\MSX\MSXgl-1.4.1\engine/src/vdp_inl.h:110: g_VDP_Command.NY = ny;
    00001123 21r0Ar00         [10] 3553 	ld	hl, #(_g_VDP_Command + 10)
    00001126 DD 7E FC         [19] 3554 	ld	a, -4 (ix)
    00001129 77               [ 7] 3555 	ld	(hl), a
    0000112A 23               [ 6] 3556 	inc	hl
    0000112B DD 7E FD         [19] 3557 	ld	a, -3 (ix)
    0000112E 77               [ 7] 3558 	ld	(hl), a
                                   3559 ;C:\MSX\MSXgl-1.4.1\engine/src/vdp_inl.h:111: g_VDP_Command.ARG = arg; 
    0000112F 21r0Dr00         [10] 3560 	ld	hl, #(_g_VDP_Command + 13)
    00001132 36 00            [10] 3561 	ld	(hl), #0x00
                                   3562 ;C:\MSX\MSXgl-1.4.1\engine/src/vdp_inl.h:112: g_VDP_Command.CMD = VDP_CMD_HMMM;
    00001134 21r0Er00         [10] 3563 	ld	hl, #(_g_VDP_Command + 14)
    00001137 36 D0            [10] 3564 	ld	(hl), #0xd0
                                   3565 ;C:\MSX\MSXgl-1.4.1\engine/src/vdp_inl.h:113: VDP_CommandSetupR32();
    00001139 CDr00r00         [17] 3566 	call	_VDP_CommandSetupR32
                                   3567 ;C:\MSX\MSXgl-1.4.1\engine/src/print.c:837: VDP_CommandHMMM(sx, sy, PRINT_DATA.CursorX, PRINT_DATA.CursorY, PRINT_W(PRINT_DATA.UnitX), PRINT_H(PRINT_DATA.PatternY));
    0000113C C3r96r11         [10] 3568 	jp	00108$
    0000113F                       3569 00102$:
                                   3570 ;C:\MSX\MSXgl-1.4.1\engine/src/print.c:839: VDP_CommandLMMM(sx, sy, PRINT_DATA.CursorX, PRINT_DATA.CursorY, PRINT_W(PRINT_DATA.UnitX), PRINT_H(PRINT_DATA.PatternY), VDP_OP_TIMP);
    0000113F DD 73 FC         [19] 3571 	ld	-4 (ix), e
    00001142 DD 72 FD         [19] 3572 	ld	-3 (ix), d
    00001145 DD 5E FE         [19] 3573 	ld	e, -2 (ix)
    00001148 DD 56 FF         [19] 3574 	ld	d, -1 (ix)
    0000114B DD 75 FE         [19] 3575 	ld	-2 (ix), l
    0000114E DD 74 FF         [19] 3576 	ld	-1 (ix), h
                                   3577 ;C:\MSX\MSXgl-1.4.1\engine/src/vdp_inl.h:240: g_VDP_Command.SX = sx;
    00001151 21r00r00         [10] 3578 	ld	hl, #_g_VDP_Command
    00001154 DD 7E F8         [19] 3579 	ld	a, -8 (ix)
    00001157 77               [ 7] 3580 	ld	(hl), a
    00001158 23               [ 6] 3581 	inc	hl
    00001159 DD 7E F9         [19] 3582 	ld	a, -7 (ix)
    0000115C 77               [ 7] 3583 	ld	(hl), a
                                   3584 ;C:\MSX\MSXgl-1.4.1\engine/src/vdp_inl.h:241: g_VDP_Command.SY = sy;
    0000115D 21r02r00         [10] 3585 	ld	hl, #(_g_VDP_Command + 2)
    00001160 DD 7E FA         [19] 3586 	ld	a, -6 (ix)
    00001163 77               [ 7] 3587 	ld	(hl), a
    00001164 23               [ 6] 3588 	inc	hl
    00001165 DD 7E FB         [19] 3589 	ld	a, -5 (ix)
    00001168 77               [ 7] 3590 	ld	(hl), a
                                   3591 ;C:\MSX\MSXgl-1.4.1\engine/src/vdp_inl.h:242: g_VDP_Command.DX = dx;
    00001169 21r04r00         [10] 3592 	ld	hl, #(_g_VDP_Command + 4)
    0000116C DD 7E FE         [19] 3593 	ld	a, -2 (ix)
    0000116F 77               [ 7] 3594 	ld	(hl), a
    00001170 23               [ 6] 3595 	inc	hl
    00001171 DD 7E FF         [19] 3596 	ld	a, -1 (ix)
    00001174 77               [ 7] 3597 	ld	(hl), a
                                   3598 ;C:\MSX\MSXgl-1.4.1\engine/src/vdp_inl.h:243: g_VDP_Command.DY = dy;
    00001175 ED 43r06r00      [20] 3599 	ld	((_g_VDP_Command + 6)), bc
                                   3600 ;C:\MSX\MSXgl-1.4.1\engine/src/vdp_inl.h:244: g_VDP_Command.NX = nx;
    00001179 ED 53r08r00      [20] 3601 	ld	((_g_VDP_Command + 8)), de
                                   3602 ;C:\MSX\MSXgl-1.4.1\engine/src/vdp_inl.h:245: g_VDP_Command.NY = ny;
    0000117D 21r0Ar00         [10] 3603 	ld	hl, #(_g_VDP_Command + 10)
    00001180 DD 7E FC         [19] 3604 	ld	a, -4 (ix)
    00001183 77               [ 7] 3605 	ld	(hl), a
    00001184 23               [ 6] 3606 	inc	hl
    00001185 DD 7E FD         [19] 3607 	ld	a, -3 (ix)
    00001188 77               [ 7] 3608 	ld	(hl), a
                                   3609 ;C:\MSX\MSXgl-1.4.1\engine/src/vdp_inl.h:246: g_VDP_Command.ARG = arg; 
    00001189 21r0Dr00         [10] 3610 	ld	hl, #(_g_VDP_Command + 13)
    0000118C 36 00            [10] 3611 	ld	(hl), #0x00
                                   3612 ;C:\MSX\MSXgl-1.4.1\engine/src/vdp_inl.h:247: g_VDP_Command.CMD = VDP_CMD_LMMM + op;
    0000118E 21r0Er00         [10] 3613 	ld	hl, #(_g_VDP_Command + 14)
    00001191 36 98            [10] 3614 	ld	(hl), #0x98
                                   3615 ;C:\MSX\MSXgl-1.4.1\engine/src/vdp_inl.h:248: VDP_CommandSetupR32();
    00001193 CDr00r00         [17] 3616 	call	_VDP_CommandSetupR32
                                   3617 ;C:\MSX\MSXgl-1.4.1\engine/src/print.c:839: VDP_CommandLMMM(sx, sy, PRINT_DATA.CursorX, PRINT_DATA.CursorY, PRINT_W(PRINT_DATA.UnitX), PRINT_H(PRINT_DATA.PatternY), VDP_OP_TIMP);
    00001196                       3618 00108$:
                                   3619 ;C:\MSX\MSXgl-1.4.1\engine/src/print.c:840: }
    00001196 DD F9            [10] 3620 	ld	sp, ix
    00001198 DD E1            [14] 3621 	pop	ix
    0000119A C9               [10] 3622 	ret
                                   3623 ;C:\MSX\MSXgl-1.4.1\engine/src/print.c:856: void CopyNo8HeightFontData(const u8* src, u16 dst, u8 height)
                                   3624 ;	---------------------------------
                                   3625 ; Function CopyNo8HeightFontData
                                   3626 ; ---------------------------------
    0000119B                       3627 _CopyNo8HeightFontData::
    0000119B DD E5            [15] 3628 	push	ix
    0000119D DD 21 00 00      [14] 3629 	ld	ix,#0
    000011A1 DD 39            [15] 3630 	add	ix,sp
    000011A3 F5               [11] 3631 	push	af
    000011A4 3B               [ 6] 3632 	dec	sp
    000011A5 E3               [19] 3633 	ex	(sp), hl
    000011A6 4B               [ 4] 3634 	ld	c, e
    000011A7 42               [ 4] 3635 	ld	b, d
                                   3636 ;C:\MSX\MSXgl-1.4.1\engine/src/print.c:858: for (u8 i = 0; i < PRINT_DATA.CharCount; ++i)
    000011A8 DD 36 FF 00      [19] 3637 	ld	-1 (ix), #0x00
    000011AC                       3638 00103$:
    000011AC 21r17r00         [10] 3639 	ld	hl, #(_g_PrintData + 23)
    000011AF 5E               [ 7] 3640 	ld	e, (hl)
    000011B0 DD 7E FF         [19] 3641 	ld	a, -1 (ix)
    000011B3 93               [ 4] 3642 	sub	a, e
    000011B4 30 3F            [12] 3643 	jr	NC, 00105$
                                   3644 ;C:\MSX\MSXgl-1.4.1\engine/src/print.c:860: VDP_FillVRAM(0, dst, 0, 8);
    000011B6 C5               [11] 3645 	push	bc
    000011B7 21 08 00         [10] 3646 	ld	hl, #0x0008
    000011BA E5               [11] 3647 	push	hl
    000011BB AF               [ 4] 3648 	xor	a, a
    000011BC F5               [11] 3649 	push	af
    000011BD 33               [ 6] 3650 	inc	sp
    000011BE 59               [ 4] 3651 	ld	e, c
    000011BF 50               [ 4] 3652 	ld	d, b
    000011C0 AF               [ 4] 3653 	xor	a, a
    000011C1 CDr00r00         [17] 3654 	call	_VDP_FillVRAM_128K
    000011C4 C1               [10] 3655 	pop	bc
                                   3656 ;C:\MSX\MSXgl-1.4.1\engine/src/print.c:861: VDP_WriteVRAM(src, dst, 0, height);
    000011C5 DD 5E 04         [19] 3657 	ld	e, 4 (ix)
    000011C8 16 00            [ 7] 3658 	ld	d, #0x00
    000011CA C5               [11] 3659 	push	bc
    000011CB D5               [11] 3660 	push	de
    000011CC AF               [ 4] 3661 	xor	a, a
    000011CD F5               [11] 3662 	push	af
    000011CE 33               [ 6] 3663 	inc	sp
    000011CF 59               [ 4] 3664 	ld	e, c
    000011D0 50               [ 4] 3665 	ld	d, b
    000011D1 DD 6E FD         [19] 3666 	ld	l, -3 (ix)
                                   3667 ;	spillPairReg hl
                                   3668 ;	spillPairReg hl
    000011D4 DD 66 FE         [19] 3669 	ld	h, -2 (ix)
                                   3670 ;	spillPairReg hl
                                   3671 ;	spillPairReg hl
    000011D7 CDr00r00         [17] 3672 	call	_VDP_WriteVRAM_128K
    000011DA C1               [10] 3673 	pop	bc
                                   3674 ;C:\MSX\MSXgl-1.4.1\engine/src/print.c:862: src += height;
    000011DB DD 7E FD         [19] 3675 	ld	a, -3 (ix)
    000011DE DD 86 04         [19] 3676 	add	a, 4 (ix)
    000011E1 DD 77 FD         [19] 3677 	ld	-3 (ix), a
    000011E4 30 03            [12] 3678 	jr	NC, 00118$
    000011E6 DD 34 FE         [23] 3679 	inc	-2 (ix)
    000011E9                       3680 00118$:
                                   3681 ;C:\MSX\MSXgl-1.4.1\engine/src/print.c:863: dst += 8;
    000011E9 21 08 00         [10] 3682 	ld	hl, #0x0008
    000011EC 09               [11] 3683 	add	hl, bc
    000011ED 4D               [ 4] 3684 	ld	c, l
    000011EE 44               [ 4] 3685 	ld	b, h
                                   3686 ;C:\MSX\MSXgl-1.4.1\engine/src/print.c:858: for (u8 i = 0; i < PRINT_DATA.CharCount; ++i)
    000011EF DD 34 FF         [23] 3687 	inc	-1 (ix)
    000011F2 C3rACr11         [10] 3688 	jp	00103$
    000011F5                       3689 00105$:
                                   3690 ;C:\MSX\MSXgl-1.4.1\engine/src/print.c:865: }
    000011F5 DD F9            [10] 3691 	ld	sp, ix
    000011F7 DD E1            [14] 3692 	pop	ix
    000011F9 E1               [10] 3693 	pop	hl
    000011FA 33               [ 6] 3694 	inc	sp
    000011FB E9               [ 4] 3695 	jp	(hl)
                                   3696 ;C:\MSX\MSXgl-1.4.1\engine/src/print.c:870: void Print_SetTextFont(const u8* fontData, u8 offset)
                                   3697 ;	---------------------------------
                                   3698 ; Function Print_SetTextFont
                                   3699 ; ---------------------------------
    000011FC                       3700 _Print_SetTextFont::
    000011FC DD E5            [15] 3701 	push	ix
    000011FE DD 21 00 00      [14] 3702 	ld	ix,#0
    00001202 DD 39            [15] 3703 	add	ix,sp
    00001204 FD 21 F4 FF      [14] 3704 	ld	iy, #-12
    00001208 FD 39            [15] 3705 	add	iy, sp
    0000120A FD F9            [10] 3706 	ld	sp, iy
    0000120C DD 75 FE         [19] 3707 	ld	-2 (ix), l
    0000120F DD 74 FF         [19] 3708 	ld	-1 (ix), h
                                   3709 ;C:\MSX\MSXgl-1.4.1\engine/src/print.c:872: PRINT_DATA.PatternOffset = offset;
    00001212 21r25r00         [10] 3710 	ld	hl, #(_g_PrintData + 37)
    00001215 DD 7E 04         [19] 3711 	ld	a, 4 (ix)
    00001218 77               [ 7] 3712 	ld	(hl), a
                                   3713 ;C:\MSX\MSXgl-1.4.1\engine/src/print.c:875: if (fontData == NULL) // Use Bios font (if any)
    00001219 DD 7E FF         [19] 3714 	ld	a, -1 (ix)
    0000121C DD B6 FE         [19] 3715 	or	a, -2 (ix)
    0000121F C2rA5r12         [10] 3716 	jp	NZ, 00102$
                                   3717 ;C:\MSX\MSXgl-1.4.1\engine/src/print.c:876: Print_SetFontEx(8, 8, 1, 1, 1, 255, (const u8*)g_CGTABL + 8); // @todo Should be [1, 255] to include all characters
    00001222 2A 04 00         [16] 3718 	ld	hl, (_g_CGTABL)
    00001225 DD 75 FC         [19] 3719 	ld	-4 (ix), l
    00001228 DD 74 FD         [19] 3720 	ld	-3 (ix), h
    0000122B DD 7E FC         [19] 3721 	ld	a, -4 (ix)
    0000122E C6 08            [ 7] 3722 	add	a, #0x08
    00001230 DD 77 F8         [19] 3723 	ld	-8 (ix), a
    00001233 DD 7E FD         [19] 3724 	ld	a, -3 (ix)
    00001236 CE 00            [ 7] 3725 	adc	a, #0x00
    00001238 DD 77 F9         [19] 3726 	ld	-7 (ix), a
                                   3727 ;C:\MSX\MSXgl-1.4.1\engine/src/print.h:242: PRINT_DATA.PatternX     = patternX;
    0000123B 21r00r00         [10] 3728 	ld	hl, #_g_PrintData
    0000123E 36 08            [10] 3729 	ld	(hl), #0x08
                                   3730 ;C:\MSX\MSXgl-1.4.1\engine/src/print.h:243: PRINT_DATA.PatternY     = patternY;
    00001240 21r01r00         [10] 3731 	ld	hl, #(_g_PrintData + 1)
    00001243 36 08            [10] 3732 	ld	(hl), #0x08
                                   3733 ;C:\MSX\MSXgl-1.4.1\engine/src/print.h:244: PRINT_DATA.UnitX        = sizeX;
    00001245 21r02r00         [10] 3734 	ld	hl, #(_g_PrintData + 2)
    00001248 36 01            [10] 3735 	ld	(hl), #0x01
                                   3736 ;C:\MSX\MSXgl-1.4.1\engine/src/print.h:245: PRINT_DATA.UnitY        = sizeY;
    0000124A 21r03r00         [10] 3737 	ld	hl, #(_g_PrintData + 3)
    0000124D 36 01            [10] 3738 	ld	(hl), #0x01
                                   3739 ;C:\MSX\MSXgl-1.4.1\engine/src/print.h:246: PRINT_DATA.CharFirst    = firstChr;
    0000124F 21r15r00         [10] 3740 	ld	hl, #(_g_PrintData + 21)
    00001252 36 01            [10] 3741 	ld	(hl), #0x01
                                   3742 ;C:\MSX\MSXgl-1.4.1\engine/src/print.h:247: PRINT_DATA.CharLast     = lastChr;
    00001254 21r16r00         [10] 3743 	ld	hl, #(_g_PrintData + 22)
    00001257 36 FF            [10] 3744 	ld	(hl), #0xff
                                   3745 ;C:\MSX\MSXgl-1.4.1\engine/src/print.h:248: PRINT_DATA.CharCount    = lastChr - firstChr + 1;
    00001259 21r17r00         [10] 3746 	ld	hl, #_g_PrintData + 23
    0000125C E3               [19] 3747 	ex	(sp), hl
    0000125D E1               [10] 3748 	pop	hl
    0000125E E5               [11] 3749 	push	hl
    0000125F 36 FF            [10] 3750 	ld	(hl), #0xff
                                   3751 ;C:\MSX\MSXgl-1.4.1\engine/src/print.h:249: PRINT_DATA.FontPatterns = patterns;
    00001261 21r1Dr00         [10] 3752 	ld	hl, #_g_PrintData + 29
    00001264 DD 75 F6         [19] 3753 	ld	-10 (ix), l
    00001267 DD 74 F7         [19] 3754 	ld	-9 (ix), h
    0000126A C1               [10] 3755 	pop	bc
    0000126B E1               [10] 3756 	pop	hl
    0000126C E5               [11] 3757 	push	hl
    0000126D C5               [11] 3758 	push	bc
    0000126E DD 7E F8         [19] 3759 	ld	a, -8 (ix)
    00001271 77               [ 7] 3760 	ld	(hl), a
    00001272 23               [ 6] 3761 	inc	hl
    00001273 DD 7E F9         [19] 3762 	ld	a, -7 (ix)
    00001276 77               [ 7] 3763 	ld	(hl), a
                                   3764 ;C:\MSX\MSXgl-1.4.1\engine/src/print.h:250: PRINT_DATA.FontAddr     = PRINT_DATA.FontPatterns - (firstChr * PRINT_DATA.PatternY); // pre-compute address of the virtual index 0 character (used to quick drawing in PutChar_GX functions)
    00001277 3Ar01r00         [13] 3765 	ld	a, (#(_g_PrintData + 1) + 0)
    0000127A DD 77 FD         [19] 3766 	ld	-3 (ix), a
    0000127D DD 77 FA         [19] 3767 	ld	-6 (ix), a
    00001280 DD 36 FB 00      [19] 3768 	ld	-5 (ix), #0x00
    00001284 DD 7E F8         [19] 3769 	ld	a, -8 (ix)
    00001287 DD 96 FA         [19] 3770 	sub	a, -6 (ix)
    0000128A DD 77 FC         [19] 3771 	ld	-4 (ix), a
    0000128D DD 7E F9         [19] 3772 	ld	a, -7 (ix)
    00001290 DD 9E FB         [19] 3773 	sbc	a, -5 (ix)
    00001293 DD 77 FD         [19] 3774 	ld	-3 (ix), a
    00001296 21r1Fr00         [10] 3775 	ld	hl, #(_g_PrintData + 31)
    00001299 DD 7E FC         [19] 3776 	ld	a, -4 (ix)
    0000129C 77               [ 7] 3777 	ld	(hl), a
    0000129D 23               [ 6] 3778 	inc	hl
    0000129E DD 7E FD         [19] 3779 	ld	a, -3 (ix)
    000012A1 77               [ 7] 3780 	ld	(hl), a
                                   3781 ;C:\MSX\MSXgl-1.4.1\engine/src/print.c:876: Print_SetFontEx(8, 8, 1, 1, 1, 255, (const u8*)g_CGTABL + 8); // @todo Should be [1, 255] to include all characters
    000012A2 C3r6Dr13         [10] 3782 	jp	00103$
    000012A5                       3783 00102$:
                                   3784 ;C:\MSX\MSXgl-1.4.1\engine/src/print.c:878: Print_SetFontEx(8, 8, 1, 1, fontData[2], fontData[3], fontData+4);
    000012A5 DD 7E FE         [19] 3785 	ld	a, -2 (ix)
    000012A8 C6 04            [ 7] 3786 	add	a, #0x04
    000012AA DD 77 F8         [19] 3787 	ld	-8 (ix), a
    000012AD DD 7E FF         [19] 3788 	ld	a, -1 (ix)
    000012B0 CE 00            [ 7] 3789 	adc	a, #0x00
    000012B2 DD 77 F9         [19] 3790 	ld	-7 (ix), a
    000012B5 DD 7E FE         [19] 3791 	ld	a, -2 (ix)
    000012B8 DD 77 FC         [19] 3792 	ld	-4 (ix), a
    000012BB DD 7E FF         [19] 3793 	ld	a, -1 (ix)
    000012BE DD 77 FD         [19] 3794 	ld	-3 (ix), a
    000012C1 DD 6E FC         [19] 3795 	ld	l, -4 (ix)
    000012C4 DD 66 FD         [19] 3796 	ld	h, -3 (ix)
    000012C7 23               [ 6] 3797 	inc	hl
    000012C8 23               [ 6] 3798 	inc	hl
    000012C9 23               [ 6] 3799 	inc	hl
    000012CA 7E               [ 7] 3800 	ld	a, (hl)
    000012CB DD 77 FD         [19] 3801 	ld	-3 (ix), a
    000012CE DD 7E FE         [19] 3802 	ld	a, -2 (ix)
    000012D1 DD 77 FB         [19] 3803 	ld	-5 (ix), a
    000012D4 DD 7E FF         [19] 3804 	ld	a, -1 (ix)
    000012D7 DD 77 FC         [19] 3805 	ld	-4 (ix), a
    000012DA DD 6E FB         [19] 3806 	ld	l, -5 (ix)
    000012DD DD 66 FC         [19] 3807 	ld	h, -4 (ix)
    000012E0 23               [ 6] 3808 	inc	hl
    000012E1 23               [ 6] 3809 	inc	hl
    000012E2 7E               [ 7] 3810 	ld	a, (hl)
    000012E3 DD 77 FA         [19] 3811 	ld	-6 (ix), a
                                   3812 ;C:\MSX\MSXgl-1.4.1\engine/src/print.h:242: PRINT_DATA.PatternX     = patternX;
    000012E6 21r00r00         [10] 3813 	ld	hl, #_g_PrintData
    000012E9 36 08            [10] 3814 	ld	(hl), #0x08
                                   3815 ;C:\MSX\MSXgl-1.4.1\engine/src/print.h:243: PRINT_DATA.PatternY     = patternY;
    000012EB 21r01r00         [10] 3816 	ld	hl, #(_g_PrintData + 1)
    000012EE 36 08            [10] 3817 	ld	(hl), #0x08
                                   3818 ;C:\MSX\MSXgl-1.4.1\engine/src/print.h:244: PRINT_DATA.UnitX        = sizeX;
    000012F0 21r02r00         [10] 3819 	ld	hl, #(_g_PrintData + 2)
    000012F3 36 01            [10] 3820 	ld	(hl), #0x01
                                   3821 ;C:\MSX\MSXgl-1.4.1\engine/src/print.h:245: PRINT_DATA.UnitY        = sizeY;
    000012F5 21r03r00         [10] 3822 	ld	hl, #(_g_PrintData + 3)
    000012F8 36 01            [10] 3823 	ld	(hl), #0x01
                                   3824 ;C:\MSX\MSXgl-1.4.1\engine/src/print.h:246: PRINT_DATA.CharFirst    = firstChr;
    000012FA 21r15r00         [10] 3825 	ld	hl, #(_g_PrintData + 21)
    000012FD DD 7E FA         [19] 3826 	ld	a, -6 (ix)
    00001300 77               [ 7] 3827 	ld	(hl), a
                                   3828 ;C:\MSX\MSXgl-1.4.1\engine/src/print.h:247: PRINT_DATA.CharLast     = lastChr;
    00001301 21r16r00         [10] 3829 	ld	hl, #(_g_PrintData + 22)
    00001304 DD 7E FD         [19] 3830 	ld	a, -3 (ix)
    00001307 77               [ 7] 3831 	ld	(hl), a
                                   3832 ;C:\MSX\MSXgl-1.4.1\engine/src/print.h:248: PRINT_DATA.CharCount    = lastChr - firstChr + 1;
    00001308 21r17r00         [10] 3833 	ld	hl, #_g_PrintData + 23
    0000130B E3               [19] 3834 	ex	(sp), hl
    0000130C DD 7E FD         [19] 3835 	ld	a, -3 (ix)
    0000130F DD 96 FA         [19] 3836 	sub	a, -6 (ix)
    00001312 DD 77 FD         [19] 3837 	ld	-3 (ix), a
    00001315 DD 34 FD         [23] 3838 	inc	-3 (ix)
    00001318 E1               [10] 3839 	pop	hl
    00001319 E5               [11] 3840 	push	hl
    0000131A DD 7E FD         [19] 3841 	ld	a, -3 (ix)
    0000131D 77               [ 7] 3842 	ld	(hl), a
                                   3843 ;C:\MSX\MSXgl-1.4.1\engine/src/print.h:249: PRINT_DATA.FontPatterns = patterns;
    0000131E 21r1Dr00         [10] 3844 	ld	hl, #_g_PrintData + 29
    00001321 DD 75 F6         [19] 3845 	ld	-10 (ix), l
    00001324 DD 74 F7         [19] 3846 	ld	-9 (ix), h
    00001327 C1               [10] 3847 	pop	bc
    00001328 E1               [10] 3848 	pop	hl
    00001329 E5               [11] 3849 	push	hl
    0000132A C5               [11] 3850 	push	bc
    0000132B DD 7E F8         [19] 3851 	ld	a, -8 (ix)
    0000132E 77               [ 7] 3852 	ld	(hl), a
    0000132F 23               [ 6] 3853 	inc	hl
    00001330 DD 7E F9         [19] 3854 	ld	a, -7 (ix)
    00001333 77               [ 7] 3855 	ld	(hl), a
                                   3856 ;C:\MSX\MSXgl-1.4.1\engine/src/print.h:250: PRINT_DATA.FontAddr     = PRINT_DATA.FontPatterns - (firstChr * PRINT_DATA.PatternY); // pre-compute address of the virtual index 0 character (used to quick drawing in PutChar_GX functions)
    00001334 3Ar01r00         [13] 3857 	ld	a, (#(_g_PrintData + 1) + 0)
    00001337 DD 77 FD         [19] 3858 	ld	-3 (ix), a
    0000133A 5F               [ 4] 3859 	ld	e, a
    0000133B DD 66 FA         [19] 3860 	ld	h, -6 (ix)
                                   3861 ;	spillPairReg hl
                                   3862 ;	spillPairReg hl
    0000133E 2E 00            [ 7] 3863 	ld	l, #0x00
    00001340 55               [ 4] 3864 	ld	d, l
    00001341 06 08            [ 7] 3865 	ld	b, #0x08
    00001343                       3866 00146$:
    00001343 29               [11] 3867 	add	hl, hl
    00001344 30 01            [12] 3868 	jr	NC, 00147$
    00001346 19               [11] 3869 	add	hl, de
    00001347                       3870 00147$:
    00001347 10 FA            [13] 3871 	djnz	00146$
    00001349 DD 75 FC         [19] 3872 	ld	-4 (ix), l
    0000134C DD 74 FD         [19] 3873 	ld	-3 (ix), h
    0000134F DD 7E F8         [19] 3874 	ld	a, -8 (ix)
    00001352 DD 96 FC         [19] 3875 	sub	a, -4 (ix)
    00001355 DD 77 FA         [19] 3876 	ld	-6 (ix), a
    00001358 DD 7E F9         [19] 3877 	ld	a, -7 (ix)
    0000135B DD 9E FD         [19] 3878 	sbc	a, -3 (ix)
    0000135E DD 77 FB         [19] 3879 	ld	-5 (ix), a
    00001361 21r1Fr00         [10] 3880 	ld	hl, #(_g_PrintData + 31)
    00001364 DD 7E FA         [19] 3881 	ld	a, -6 (ix)
    00001367 77               [ 7] 3882 	ld	(hl), a
    00001368 23               [ 6] 3883 	inc	hl
    00001369 DD 7E FB         [19] 3884 	ld	a, -5 (ix)
    0000136C 77               [ 7] 3885 	ld	(hl), a
                                   3886 ;C:\MSX\MSXgl-1.4.1\engine/src/print.c:878: Print_SetFontEx(8, 8, 1, 1, fontData[2], fontData[3], fontData+4);
    0000136D                       3887 00103$:
                                   3888 ;C:\MSX\MSXgl-1.4.1\engine/src/print.c:879: Print_Initialize();
    0000136D CDrA2r00         [17] 3889 	call	_Print_Initialize
                                   3890 ;C:\MSX\MSXgl-1.4.1\engine/src/print.c:880: Print_SetMode(PRINT_MODE_TEXT);
    00001370 3E 05            [ 7] 3891 	ld	a, #0x05
    00001372 CDr96r01         [17] 3892 	call	_Print_SetMode
                                   3893 ;C:\MSX\MSXgl-1.4.1\engine/src/print.c:883: const u8* src = PRINT_DATA.FontPatterns;
    00001375 DD 6E F6         [19] 3894 	ld	l, -10 (ix)
    00001378 DD 66 F7         [19] 3895 	ld	h, -9 (ix)
    0000137B 7E               [ 7] 3896 	ld	a, (hl)
    0000137C DD 77 FC         [19] 3897 	ld	-4 (ix), a
    0000137F 23               [ 6] 3898 	inc	hl
    00001380 7E               [ 7] 3899 	ld	a, (hl)
    00001381 DD 77 FD         [19] 3900 	ld	-3 (ix), a
                                   3901 ;C:\MSX\MSXgl-1.4.1\engine/src/print.c:884: u16 dst = (u16)g_ScreenPatternLow + (offset * 8);
    00001384 DD 7E 04         [19] 3902 	ld	a, 4 (ix)
    00001387 DD 77 FA         [19] 3903 	ld	-6 (ix), a
    0000138A DD 36 FB 00      [19] 3904 	ld	-5 (ix), #0x00
    0000138E 06 03            [ 7] 3905 	ld	b, #0x03
    00001390                       3906 00148$:
    00001390 DD CB FA 26      [23] 3907 	sla	-6 (ix)
    00001394 DD CB FB 16      [23] 3908 	rl	-5 (ix)
    00001398 10 F6            [13] 3909 	djnz	00148$
    0000139A 2Ar00r00         [16] 3910 	ld	hl, (_g_ScreenPatternLow)
    0000139D DD 75 F6         [19] 3911 	ld	-10 (ix), l
    000013A0 DD 74 F7         [19] 3912 	ld	-9 (ix), h
    000013A3 DD 7E FA         [19] 3913 	ld	a, -6 (ix)
    000013A6 DD 77 F8         [19] 3914 	ld	-8 (ix), a
    000013A9 DD 7E FB         [19] 3915 	ld	a, -5 (ix)
    000013AC DD 77 F9         [19] 3916 	ld	-7 (ix), a
    000013AF DD 7E F6         [19] 3917 	ld	a, -10 (ix)
    000013B2 DD 86 F8         [19] 3918 	add	a, -8 (ix)
    000013B5 DD 77 FA         [19] 3919 	ld	-6 (ix), a
    000013B8 DD 7E F7         [19] 3920 	ld	a, -9 (ix)
    000013BB DD 8E F9         [19] 3921 	adc	a, -7 (ix)
    000013BE DD 77 FB         [19] 3922 	ld	-5 (ix), a
                                   3923 ;C:\MSX\MSXgl-1.4.1\engine/src/print.c:886: if (fontData != NULL)
    000013C1 DD 7E FF         [19] 3924 	ld	a, -1 (ix)
    000013C4 DD B6 FE         [19] 3925 	or	a, -2 (ix)
    000013C7 28 1D            [12] 3926 	jr	Z, 00105$
                                   3927 ;C:\MSX\MSXgl-1.4.1\engine/src/print.c:887: CopyNo8HeightFontData(src, dst, fontData[0] & 0x0F);
    000013C9 DD 6E FE         [19] 3928 	ld	l, -2 (ix)
    000013CC DD 66 FF         [19] 3929 	ld	h, -1 (ix)
    000013CF 7E               [ 7] 3930 	ld	a, (hl)
    000013D0 E6 0F            [ 7] 3931 	and	a, #0x0f
    000013D2 F5               [11] 3932 	push	af
    000013D3 33               [ 6] 3933 	inc	sp
    000013D4 DD 5E FA         [19] 3934 	ld	e, -6 (ix)
    000013D7 DD 56 FB         [19] 3935 	ld	d, -5 (ix)
    000013DA DD 6E FC         [19] 3936 	ld	l, -4 (ix)
                                   3937 ;	spillPairReg hl
                                   3938 ;	spillPairReg hl
    000013DD DD 66 FD         [19] 3939 	ld	h, -3 (ix)
                                   3940 ;	spillPairReg hl
                                   3941 ;	spillPairReg hl
    000013E0 CDr9Br11         [17] 3942 	call	_CopyNo8HeightFontData
    000013E3 C3r18r14         [10] 3943 	jp	00106$
    000013E6                       3944 00105$:
                                   3945 ;C:\MSX\MSXgl-1.4.1\engine/src/print.c:890: VDP_WriteVRAM(src, dst, 0, PRINT_DATA.CharCount * 8);
    000013E6 E1               [10] 3946 	pop	hl
    000013E7 E5               [11] 3947 	push	hl
    000013E8 7E               [ 7] 3948 	ld	a, (hl)
    000013E9 DD 77 F9         [19] 3949 	ld	-7 (ix), a
    000013EC DD 77 F8         [19] 3950 	ld	-8 (ix), a
    000013EF DD 36 F9 00      [19] 3951 	ld	-7 (ix), #0x00
    000013F3 06 03            [ 7] 3952 	ld	b, #0x03
    000013F5                       3953 00149$:
    000013F5 DD CB F8 26      [23] 3954 	sla	-8 (ix)
    000013F9 DD CB F9 16      [23] 3955 	rl	-7 (ix)
    000013FD 10 F6            [13] 3956 	djnz	00149$
    000013FF DD 6E F8         [19] 3957 	ld	l, -8 (ix)
                                   3958 ;	spillPairReg hl
                                   3959 ;	spillPairReg hl
    00001402 DD 66 F9         [19] 3960 	ld	h, -7 (ix)
                                   3961 ;	spillPairReg hl
                                   3962 ;	spillPairReg hl
    00001405 E5               [11] 3963 	push	hl
    00001406 AF               [ 4] 3964 	xor	a, a
    00001407 F5               [11] 3965 	push	af
    00001408 33               [ 6] 3966 	inc	sp
    00001409 DD 5E FA         [19] 3967 	ld	e, -6 (ix)
    0000140C DD 56 FB         [19] 3968 	ld	d, -5 (ix)
    0000140F DD 6E FC         [19] 3969 	ld	l, -4 (ix)
                                   3970 ;	spillPairReg hl
                                   3971 ;	spillPairReg hl
    00001412 DD 66 FD         [19] 3972 	ld	h, -3 (ix)
                                   3973 ;	spillPairReg hl
                                   3974 ;	spillPairReg hl
    00001415 CDr00r00         [17] 3975 	call	_VDP_WriteVRAM_128K
    00001418                       3976 00106$:
                                   3977 ;C:\MSX\MSXgl-1.4.1\engine/src/vdp.h:483: inline u8 VDP_GetMode() { return g_VDP_Data.Mode; }
    00001418 3Ar00r00         [13] 3978 	ld	a, (#_g_VDP_Data + 0)
                                   3979 ;C:\MSX\MSXgl-1.4.1\engine/src/print.c:892: switch (VDP_GetMode())
    0000141B DD 77 F9         [19] 3980 	ld	-7 (ix), a
    0000141E D6 03            [ 7] 3981 	sub	a, #0x03
    00001420 28 08            [12] 3982 	jr	Z, 00108$
    00001422 DD 7E F9         [19] 3983 	ld	a, -7 (ix)
    00001425 D6 05            [ 7] 3984 	sub	a, #0x05
    00001427 C2r21r15         [10] 3985 	jp	NZ,00119$
                                   3986 ;C:\MSX\MSXgl-1.4.1\engine/src/print.c:898: case VDP_MODE_GRAPHIC3:		// GRAPHIC 2 which can use sprite mode 2
    0000142A                       3987 00108$:
                                   3988 ;C:\MSX\MSXgl-1.4.1\engine/src/print.c:901: dst += 256 * 8;
    0000142A DD 7E FA         [19] 3989 	ld	a, -6 (ix)
    0000142D DD 77 F8         [19] 3990 	ld	-8 (ix), a
    00001430 DD 7E FB         [19] 3991 	ld	a, -5 (ix)
    00001433 DD 77 F9         [19] 3992 	ld	-7 (ix), a
    00001436 DD 7E F8         [19] 3993 	ld	a, -8 (ix)
    00001439 DD 77 FA         [19] 3994 	ld	-6 (ix), a
    0000143C DD 7E F9         [19] 3995 	ld	a, -7 (ix)
    0000143F C6 08            [ 7] 3996 	add	a, #0x08
    00001441 DD 77 FB         [19] 3997 	ld	-5 (ix), a
    00001444 DD 7E FA         [19] 3998 	ld	a, -6 (ix)
    00001447 DD 77 F8         [19] 3999 	ld	-8 (ix), a
    0000144A DD 7E FB         [19] 4000 	ld	a, -5 (ix)
    0000144D DD 77 F9         [19] 4001 	ld	-7 (ix), a
                                   4002 ;C:\MSX\MSXgl-1.4.1\engine/src/print.c:903: if (fontData != NULL)
    00001450 DD 7E FF         [19] 4003 	ld	a, -1 (ix)
    00001453 DD B6 FE         [19] 4004 	or	a, -2 (ix)
    00001456 28 1D            [12] 4005 	jr	Z, 00110$
                                   4006 ;C:\MSX\MSXgl-1.4.1\engine/src/print.c:904: CopyNo8HeightFontData(src, dst, fontData[0] & 0x0F);
    00001458 DD 6E FE         [19] 4007 	ld	l, -2 (ix)
    0000145B DD 66 FF         [19] 4008 	ld	h, -1 (ix)
    0000145E 7E               [ 7] 4009 	ld	a, (hl)
    0000145F E6 0F            [ 7] 4010 	and	a, #0x0f
    00001461 F5               [11] 4011 	push	af
    00001462 33               [ 6] 4012 	inc	sp
    00001463 DD 5E F8         [19] 4013 	ld	e, -8 (ix)
    00001466 DD 56 F9         [19] 4014 	ld	d, -7 (ix)
    00001469 DD 6E FC         [19] 4015 	ld	l, -4 (ix)
                                   4016 ;	spillPairReg hl
                                   4017 ;	spillPairReg hl
    0000146C DD 66 FD         [19] 4018 	ld	h, -3 (ix)
                                   4019 ;	spillPairReg hl
                                   4020 ;	spillPairReg hl
    0000146F CDr9Br11         [17] 4021 	call	_CopyNo8HeightFontData
    00001472 C3rA7r14         [10] 4022 	jp	00111$
    00001475                       4023 00110$:
                                   4024 ;C:\MSX\MSXgl-1.4.1\engine/src/print.c:907: VDP_WriteVRAM(src, dst, 0, PRINT_DATA.CharCount * 8);
    00001475 E1               [10] 4025 	pop	hl
    00001476 E5               [11] 4026 	push	hl
    00001477 7E               [ 7] 4027 	ld	a, (hl)
    00001478 DD 77 FB         [19] 4028 	ld	-5 (ix), a
    0000147B DD 77 FA         [19] 4029 	ld	-6 (ix), a
    0000147E DD 36 FB 00      [19] 4030 	ld	-5 (ix), #0x00
    00001482 06 03            [ 7] 4031 	ld	b, #0x03
    00001484                       4032 00153$:
    00001484 DD CB FA 26      [23] 4033 	sla	-6 (ix)
    00001488 DD CB FB 16      [23] 4034 	rl	-5 (ix)
    0000148C 10 F6            [13] 4035 	djnz	00153$
    0000148E DD 6E FA         [19] 4036 	ld	l, -6 (ix)
                                   4037 ;	spillPairReg hl
                                   4038 ;	spillPairReg hl
    00001491 DD 66 FB         [19] 4039 	ld	h, -5 (ix)
                                   4040 ;	spillPairReg hl
                                   4041 ;	spillPairReg hl
    00001494 E5               [11] 4042 	push	hl
    00001495 AF               [ 4] 4043 	xor	a, a
    00001496 F5               [11] 4044 	push	af
    00001497 33               [ 6] 4045 	inc	sp
    00001498 DD 5E F8         [19] 4046 	ld	e, -8 (ix)
    0000149B DD 56 F9         [19] 4047 	ld	d, -7 (ix)
    0000149E DD 6E FC         [19] 4048 	ld	l, -4 (ix)
                                   4049 ;	spillPairReg hl
                                   4050 ;	spillPairReg hl
    000014A1 DD 66 FD         [19] 4051 	ld	h, -3 (ix)
                                   4052 ;	spillPairReg hl
                                   4053 ;	spillPairReg hl
    000014A4 CDr00r00         [17] 4054 	call	_VDP_WriteVRAM_128K
    000014A7                       4055 00111$:
                                   4056 ;C:\MSX\MSXgl-1.4.1\engine/src/print.c:908: dst += 256 * 8;
    000014A7 DD 7E F8         [19] 4057 	ld	a, -8 (ix)
    000014AA DD 77 FA         [19] 4058 	ld	-6 (ix), a
    000014AD DD 7E F9         [19] 4059 	ld	a, -7 (ix)
    000014B0 DD 77 FB         [19] 4060 	ld	-5 (ix), a
    000014B3 DD 7E FA         [19] 4061 	ld	a, -6 (ix)
    000014B6 DD 77 F8         [19] 4062 	ld	-8 (ix), a
    000014B9 DD 7E FB         [19] 4063 	ld	a, -5 (ix)
    000014BC C6 08            [ 7] 4064 	add	a, #0x08
    000014BE DD 77 F9         [19] 4065 	ld	-7 (ix), a
    000014C1 DD 7E F8         [19] 4066 	ld	a, -8 (ix)
    000014C4 DD 77 FA         [19] 4067 	ld	-6 (ix), a
    000014C7 DD 7E F9         [19] 4068 	ld	a, -7 (ix)
    000014CA DD 77 FB         [19] 4069 	ld	-5 (ix), a
                                   4070 ;C:\MSX\MSXgl-1.4.1\engine/src/print.c:910: if (fontData != NULL)
    000014CD DD 7E FF         [19] 4071 	ld	a, -1 (ix)
    000014D0 DD B6 FE         [19] 4072 	or	a, -2 (ix)
    000014D3 28 1D            [12] 4073 	jr	Z, 00113$
                                   4074 ;C:\MSX\MSXgl-1.4.1\engine/src/print.c:911: CopyNo8HeightFontData(src, dst, fontData[0] & 0x0F);
    000014D5 DD 6E FE         [19] 4075 	ld	l, -2 (ix)
    000014D8 DD 66 FF         [19] 4076 	ld	h, -1 (ix)
    000014DB 7E               [ 7] 4077 	ld	a, (hl)
    000014DC E6 0F            [ 7] 4078 	and	a, #0x0f
    000014DE F5               [11] 4079 	push	af
    000014DF 33               [ 6] 4080 	inc	sp
    000014E0 DD 5E FA         [19] 4081 	ld	e, -6 (ix)
    000014E3 DD 56 FB         [19] 4082 	ld	d, -5 (ix)
    000014E6 DD 6E FC         [19] 4083 	ld	l, -4 (ix)
                                   4084 ;	spillPairReg hl
                                   4085 ;	spillPairReg hl
    000014E9 DD 66 FD         [19] 4086 	ld	h, -3 (ix)
                                   4087 ;	spillPairReg hl
                                   4088 ;	spillPairReg hl
    000014EC CDr9Br11         [17] 4089 	call	_CopyNo8HeightFontData
    000014EF C3r21r15         [10] 4090 	jp	00119$
    000014F2                       4091 00113$:
                                   4092 ;C:\MSX\MSXgl-1.4.1\engine/src/print.c:914: VDP_WriteVRAM(src, dst, 0, PRINT_DATA.CharCount * 8);
    000014F2 E1               [10] 4093 	pop	hl
    000014F3 E5               [11] 4094 	push	hl
    000014F4 7E               [ 7] 4095 	ld	a, (hl)
    000014F5 DD 77 F8         [19] 4096 	ld	-8 (ix), a
    000014F8 DD 36 F9 00      [19] 4097 	ld	-7 (ix), #0x00
    000014FC 06 03            [ 7] 4098 	ld	b, #0x03
    000014FE                       4099 00154$:
    000014FE DD CB F8 26      [23] 4100 	sla	-8 (ix)
    00001502 DD CB F9 16      [23] 4101 	rl	-7 (ix)
    00001506 10 F6            [13] 4102 	djnz	00154$
    00001508 DD 6E F8         [19] 4103 	ld	l, -8 (ix)
                                   4104 ;	spillPairReg hl
                                   4105 ;	spillPairReg hl
    0000150B DD 66 F9         [19] 4106 	ld	h, -7 (ix)
                                   4107 ;	spillPairReg hl
                                   4108 ;	spillPairReg hl
    0000150E E5               [11] 4109 	push	hl
    0000150F AF               [ 4] 4110 	xor	a, a
    00001510 F5               [11] 4111 	push	af
    00001511 33               [ 6] 4112 	inc	sp
    00001512 DD 5E FA         [19] 4113 	ld	e, -6 (ix)
    00001515 DD 56 FB         [19] 4114 	ld	d, -5 (ix)
    00001518 DD 6E FC         [19] 4115 	ld	l, -4 (ix)
                                   4116 ;	spillPairReg hl
                                   4117 ;	spillPairReg hl
    0000151B DD 66 FD         [19] 4118 	ld	h, -3 (ix)
                                   4119 ;	spillPairReg hl
                                   4120 ;	spillPairReg hl
    0000151E CDr00r00         [17] 4121 	call	_VDP_WriteVRAM_128K
                                   4122 ;C:\MSX\MSXgl-1.4.1\engine/src/print.c:917: };
    00001521                       4123 00119$:
                                   4124 ;C:\MSX\MSXgl-1.4.1\engine/src/print.c:918: }
    00001521 DD F9            [10] 4125 	ld	sp, ix
    00001523 DD E1            [14] 4126 	pop	ix
    00001525 E1               [10] 4127 	pop	hl
    00001526 33               [ 6] 4128 	inc	sp
    00001527 E9               [ 4] 4129 	jp	(hl)
                                   4130 ;C:\MSX\MSXgl-1.4.1\engine/src/print.c:923: void DrawChar_Layout(u8 chr)
                                   4131 ;	---------------------------------
                                   4132 ; Function DrawChar_Layout
                                   4133 ; ---------------------------------
    00001528                       4134 _DrawChar_Layout::
    00001528 DD E5            [15] 4135 	push	ix
    0000152A DD 21 00 00      [14] 4136 	ld	ix,#0
    0000152E DD 39            [15] 4137 	add	ix,sp
    00001530 3B               [ 6] 4138 	dec	sp
                                   4139 ;C:\MSX\MSXgl-1.4.1\engine/src/print.c:926: chr = Print_ValidateChar(chr);
    00001531 CDr6Er06         [17] 4140 	call	_Print_ValidateChar
    00001534 4F               [ 4] 4141 	ld	c, a
                                   4142 ;C:\MSX\MSXgl-1.4.1\engine/src/print.c:928: u8 shape = chr - PRINT_DATA.CharFirst + PRINT_DATA.PatternOffset;
    00001535 21r15r00         [10] 4143 	ld	hl, #_g_PrintData + 21
    00001538 46               [ 7] 4144 	ld	b, (hl)
    00001539 79               [ 4] 4145 	ld	a, c
    0000153A 90               [ 4] 4146 	sub	a, b
    0000153B 21r25r00         [10] 4147 	ld	hl, #_g_PrintData + 37
    0000153E 4E               [ 7] 4148 	ld	c, (hl)
    0000153F 81               [ 4] 4149 	add	a, c
    00001540 DD 77 FF         [19] 4150 	ld	-1 (ix), a
                                   4151 ;C:\MSX\MSXgl-1.4.1\engine/src/print.c:929: u16 dst = (u16)g_ScreenLayoutLow + (PRINT_DATA.CursorY * PRINT_DATA.ScreenWidth) + PRINT_DATA.CursorX;
    00001543 21r07r00         [10] 4152 	ld	hl, #_g_PrintData + 7
    00001546 4E               [ 7] 4153 	ld	c, (hl)
    00001547 ED 5Br1Br00      [20] 4154 	ld	de, (#_g_PrintData + 27)
    0000154B 26 00            [ 7] 4155 	ld	h, #0x00
                                   4156 ;	spillPairReg hl
                                   4157 ;	spillPairReg hl
    0000154D 69               [ 4] 4158 	ld	l, c
                                   4159 ;	spillPairReg hl
                                   4160 ;	spillPairReg hl
    0000154E CDr00r00         [17] 4161 	call	__mulint
    00001551 FD 2Ar00r00      [20] 4162 	ld	iy, (_g_ScreenLayoutLow)
    00001555 FD 19            [15] 4163 	add	iy, de
    00001557 2Ar05r00         [16] 4164 	ld	hl, (#_g_PrintData + 5)
    0000155A FD E5            [15] 4165 	push	iy
    0000155C D1               [10] 4166 	pop	de
    0000155D 19               [11] 4167 	add	hl, de
    0000155E EB               [ 4] 4168 	ex	de, hl
                                   4169 ;C:\MSX\MSXgl-1.4.1\engine/src/print.c:930: VDP_Poke(shape, dst, g_ScreenLayoutHigh);
    0000155F 3Ar00r00         [13] 4170 	ld	a, (_g_ScreenLayoutHigh+0)
    00001562 F5               [11] 4171 	push	af
    00001563 33               [ 6] 4172 	inc	sp
    00001564 DD 7E FF         [19] 4173 	ld	a, -1 (ix)
    00001567 CDr00r00         [17] 4174 	call	_VDP_Poke_128K
                                   4175 ;C:\MSX\MSXgl-1.4.1\engine/src/print.c:931: }
    0000156A 33               [ 6] 4176 	inc	sp
    0000156B DD E1            [14] 4177 	pop	ix
    0000156D C9               [10] 4178 	ret
                                   4179 ;C:\MSX\MSXgl-1.4.1\engine/src/print.c:950: void Print_SetSpriteFont(const u8* font, u8 patIdx, u8 sprtIdx)
                                   4180 ;	---------------------------------
                                   4181 ; Function Print_SetSpriteFont
                                   4182 ; ---------------------------------
    0000156E                       4183 _Print_SetSpriteFont::
    0000156E DD E5            [15] 4184 	push	ix
    00001570 DD 21 00 00      [14] 4185 	ld	ix,#0
    00001574 DD 39            [15] 4186 	add	ix,sp
    00001576 FD 21 F4 FF      [14] 4187 	ld	iy, #-12
    0000157A FD 39            [15] 4188 	add	iy, sp
    0000157C FD F9            [10] 4189 	ld	sp, iy
    0000157E EB               [ 4] 4190 	ex	de, hl
                                   4191 ;C:\MSX\MSXgl-1.4.1\engine/src/print.c:952: PRINT_DATA.SpritePattern = patIdx;
    0000157F 21r23r00         [10] 4192 	ld	hl, #(_g_PrintData + 35)
    00001582 DD 7E 04         [19] 4193 	ld	a, 4 (ix)
    00001585 77               [ 7] 4194 	ld	(hl), a
                                   4195 ;C:\MSX\MSXgl-1.4.1\engine/src/print.c:953: PRINT_DATA.SpriteID = sprtIdx;
    00001586 21r24r00         [10] 4196 	ld	hl, #(_g_PrintData + 36)
    00001589 DD 7E 05         [19] 4197 	ld	a, 5 (ix)
    0000158C 77               [ 7] 4198 	ld	(hl), a
                                   4199 ;C:\MSX\MSXgl-1.4.1\engine/src/print.c:955: Print_SetFont(font);
    0000158D EB               [ 4] 4200 	ex	de, hl
    0000158E CDr20r02         [17] 4201 	call	_Print_SetFont
                                   4202 ;C:\MSX\MSXgl-1.4.1\engine/src/print.c:956: Print_Initialize();
    00001591 CDrA2r00         [17] 4203 	call	_Print_Initialize
                                   4204 ;C:\MSX\MSXgl-1.4.1\engine/src/print.c:957: Print_SetMode(PRINT_MODE_SPRITE);
    00001594 3E 04            [ 7] 4205 	ld	a, #0x04
    00001596 CDr96r01         [17] 4206 	call	_Print_SetMode
                                   4207 ;C:\MSX\MSXgl-1.4.1\engine/src/print.c:962: u16 ram = (u16)PRINT_DATA.FontPatterns;
    00001599 2Ar1Dr00         [16] 4208 	ld	hl, (#_g_PrintData + 29)
    0000159C E3               [19] 4209 	ex	(sp), hl
                                   4210 ;C:\MSX\MSXgl-1.4.1\engine/src/print.c:963: u16 vram = g_SpritePatternLow;
    0000159D 2Ar00r00         [16] 4211 	ld	hl, (_g_SpritePatternLow)
    000015A0 DD 75 F6         [19] 4212 	ld	-10 (ix), l
    000015A3 DD 74 F7         [19] 4213 	ld	-9 (ix), h
                                   4214 ;C:\MSX\MSXgl-1.4.1\engine/src/print.c:964: for (u16 chr = PRINT_DATA.CharFirst; chr <= PRINT_DATA.CharLast; ++chr)
    000015A6 3Ar15r00         [13] 4215 	ld	a, (#_g_PrintData + 21)
    000015A9 DD 77 FF         [19] 4216 	ld	-1 (ix), a
    000015AC DD 77 FE         [19] 4217 	ld	-2 (ix), a
    000015AF DD 36 FF 00      [19] 4218 	ld	-1 (ix), #0x00
    000015B3                       4219 00106$:
    000015B3 3Ar16r00         [13] 4220 	ld	a, (#_g_PrintData + 22)
    000015B6 DD 77 FD         [19] 4221 	ld	-3 (ix), a
    000015B9 DD 77 FC         [19] 4222 	ld	-4 (ix), a
    000015BC DD 36 FD 00      [19] 4223 	ld	-3 (ix), #0x00
    000015C0 DD 7E FC         [19] 4224 	ld	a, -4 (ix)
    000015C3 DD 96 FE         [19] 4225 	sub	a, -2 (ix)
    000015C6 DD 7E FD         [19] 4226 	ld	a, -3 (ix)
    000015C9 DD 9E FF         [19] 4227 	sbc	a, -1 (ix)
    000015CC DArC6r16         [10] 4228 	jp	C, 00108$
                                   4229 ;C:\MSX\MSXgl-1.4.1\engine/src/print.c:967: if (PRINT_H(PRINT_DATA.PatternY) < 8)
    000015CF 3Ar01r00         [13] 4230 	ld	a, (#(_g_PrintData + 1) + 0)
    000015D2 DD 77 F9         [19] 4231 	ld	-7 (ix), a
                                   4232 ;C:\MSX\MSXgl-1.4.1\engine/src/print.c:969: VDP_WriteVRAM((u8*)ram, vram, g_SpritePatternHigh, PRINT_H(PRINT_DATA.PatternY));
    000015D5 DD 7E F4         [19] 4233 	ld	a, -12 (ix)
    000015D8 DD 77 FA         [19] 4234 	ld	-6 (ix), a
    000015DB DD 7E F5         [19] 4235 	ld	a, -11 (ix)
    000015DE DD 77 FB         [19] 4236 	ld	-5 (ix), a
                                   4237 ;C:\MSX\MSXgl-1.4.1\engine/src/print.c:970: vram += PRINT_H(PRINT_DATA.PatternY);
    000015E1 DD 7E F6         [19] 4238 	ld	a, -10 (ix)
    000015E4 DD 77 FC         [19] 4239 	ld	-4 (ix), a
    000015E7 DD 7E F7         [19] 4240 	ld	a, -9 (ix)
    000015EA DD 77 FD         [19] 4241 	ld	-3 (ix), a
                                   4242 ;C:\MSX\MSXgl-1.4.1\engine/src/print.c:967: if (PRINT_H(PRINT_DATA.PatternY) < 8)
    000015ED DD 7E F9         [19] 4243 	ld	a, -7 (ix)
    000015F0 D6 08            [ 7] 4244 	sub	a, #0x08
    000015F2 30 52            [12] 4245 	jr	NC, 00102$
                                   4246 ;C:\MSX\MSXgl-1.4.1\engine/src/print.c:969: VDP_WriteVRAM((u8*)ram, vram, g_SpritePatternHigh, PRINT_H(PRINT_DATA.PatternY));
    000015F4 DD 4E F9         [19] 4247 	ld	c, -7 (ix)
    000015F7 06 00            [ 7] 4248 	ld	b, #0x00
    000015F9 C5               [11] 4249 	push	bc
    000015FA 3Ar00r00         [13] 4250 	ld	a, (_g_SpritePatternHigh+0)
    000015FD F5               [11] 4251 	push	af
    000015FE 33               [ 6] 4252 	inc	sp
    000015FF DD 5E F6         [19] 4253 	ld	e, -10 (ix)
    00001602 DD 56 F7         [19] 4254 	ld	d, -9 (ix)
    00001605 DD 6E FA         [19] 4255 	ld	l, -6 (ix)
                                   4256 ;	spillPairReg hl
                                   4257 ;	spillPairReg hl
    00001608 DD 66 FB         [19] 4258 	ld	h, -5 (ix)
                                   4259 ;	spillPairReg hl
                                   4260 ;	spillPairReg hl
    0000160B CDr00r00         [17] 4261 	call	_VDP_WriteVRAM_128K
                                   4262 ;C:\MSX\MSXgl-1.4.1\engine/src/print.c:970: vram += PRINT_H(PRINT_DATA.PatternY);
    0000160E 3Ar01r00         [13] 4263 	ld	a, (#(_g_PrintData + 1) + 0)
    00001611 4F               [ 4] 4264 	ld	c, a
    00001612 06 00            [ 7] 4265 	ld	b, #0x00
    00001614 59               [ 4] 4266 	ld	e, c
    00001615 50               [ 4] 4267 	ld	d, b
    00001616 DD 6E FC         [19] 4268 	ld	l, -4 (ix)
    00001619 DD 66 FD         [19] 4269 	ld	h, -3 (ix)
    0000161C 19               [11] 4270 	add	hl, de
    0000161D EB               [ 4] 4271 	ex	de, hl
                                   4272 ;C:\MSX\MSXgl-1.4.1\engine/src/print.c:971: VDP_FillVRAM(0, vram, g_SpritePatternHigh, 8 - PRINT_H(PRINT_DATA.PatternY));
    0000161E 21 08 00         [10] 4273 	ld	hl, #0x0008
    00001621 BF               [ 4] 4274 	cp	a, a
    00001622 ED 42            [15] 4275 	sbc	hl, bc
    00001624 D5               [11] 4276 	push	de
    00001625 E5               [11] 4277 	push	hl
    00001626 3Ar00r00         [13] 4278 	ld	a, (_g_SpritePatternHigh+0)
    00001629 F5               [11] 4279 	push	af
    0000162A 33               [ 6] 4280 	inc	sp
    0000162B AF               [ 4] 4281 	xor	a, a
    0000162C CDr00r00         [17] 4282 	call	_VDP_FillVRAM_128K
    0000162F D1               [10] 4283 	pop	de
                                   4284 ;C:\MSX\MSXgl-1.4.1\engine/src/print.c:972: vram += 8 - PRINT_H(PRINT_DATA.PatternY);
    00001630 3Ar01r00         [13] 4285 	ld	a, (#(_g_PrintData + 1) + 0)
    00001633 4F               [ 4] 4286 	ld	c, a
    00001634 06 00            [ 7] 4287 	ld	b, #0x00
    00001636 21 08 00         [10] 4288 	ld	hl, #0x0008
    00001639 BF               [ 4] 4289 	cp	a, a
    0000163A ED 42            [15] 4290 	sbc	hl, bc
    0000163C 19               [11] 4291 	add	hl, de
    0000163D DD 75 F6         [19] 4292 	ld	-10 (ix), l
    00001640 DD 74 F7         [19] 4293 	ld	-9 (ix), h
    00001643 C3r7Ar16         [10] 4294 	jp	00103$
    00001646                       4295 00102$:
                                   4296 ;C:\MSX\MSXgl-1.4.1\engine/src/print.c:976: VDP_WriteVRAM((u8*)ram, vram, g_SpritePatternHigh, 8);
    00001646 21 08 00         [10] 4297 	ld	hl, #0x0008
    00001649 E5               [11] 4298 	push	hl
    0000164A 3Ar00r00         [13] 4299 	ld	a, (_g_SpritePatternHigh+0)
    0000164D F5               [11] 4300 	push	af
    0000164E 33               [ 6] 4301 	inc	sp
    0000164F DD 5E F6         [19] 4302 	ld	e, -10 (ix)
    00001652 DD 56 F7         [19] 4303 	ld	d, -9 (ix)
    00001655 DD 6E FA         [19] 4304 	ld	l, -6 (ix)
                                   4305 ;	spillPairReg hl
                                   4306 ;	spillPairReg hl
    00001658 DD 66 FB         [19] 4307 	ld	h, -5 (ix)
                                   4308 ;	spillPairReg hl
                                   4309 ;	spillPairReg hl
    0000165B CDr00r00         [17] 4310 	call	_VDP_WriteVRAM_128K
                                   4311 ;C:\MSX\MSXgl-1.4.1\engine/src/print.c:977: vram += 8;
    0000165E DD 7E FC         [19] 4312 	ld	a, -4 (ix)
    00001661 C6 08            [ 7] 4313 	add	a, #0x08
    00001663 DD 77 FA         [19] 4314 	ld	-6 (ix), a
    00001666 DD 7E FD         [19] 4315 	ld	a, -3 (ix)
    00001669 CE 00            [ 7] 4316 	adc	a, #0x00
    0000166B DD 77 FB         [19] 4317 	ld	-5 (ix), a
    0000166E DD 7E FA         [19] 4318 	ld	a, -6 (ix)
    00001671 DD 77 F6         [19] 4319 	ld	-10 (ix), a
    00001674 DD 7E FB         [19] 4320 	ld	a, -5 (ix)
    00001677 DD 77 F7         [19] 4321 	ld	-9 (ix), a
    0000167A                       4322 00103$:
                                   4323 ;C:\MSX\MSXgl-1.4.1\engine/src/print.c:979: ram += PRINT_H(PRINT_DATA.PatternY);
    0000167A 3Ar01r00         [13] 4324 	ld	a, (#(_g_PrintData + 1) + 0)
    0000167D DD 77 FC         [19] 4325 	ld	-4 (ix), a
    00001680 DD 36 FD 00      [19] 4326 	ld	-3 (ix), #0x00
    00001684 DD 7E F4         [19] 4327 	ld	a, -12 (ix)
    00001687 DD 77 F8         [19] 4328 	ld	-8 (ix), a
    0000168A DD 7E F5         [19] 4329 	ld	a, -11 (ix)
    0000168D DD 77 F9         [19] 4330 	ld	-7 (ix), a
    00001690 DD 7E FC         [19] 4331 	ld	a, -4 (ix)
    00001693 DD 77 FA         [19] 4332 	ld	-6 (ix), a
    00001696 DD 7E FD         [19] 4333 	ld	a, -3 (ix)
    00001699 DD 77 FB         [19] 4334 	ld	-5 (ix), a
    0000169C DD 7E F8         [19] 4335 	ld	a, -8 (ix)
    0000169F DD 86 FA         [19] 4336 	add	a, -6 (ix)
    000016A2 DD 77 FC         [19] 4337 	ld	-4 (ix), a
    000016A5 DD 7E F9         [19] 4338 	ld	a, -7 (ix)
    000016A8 DD 8E FB         [19] 4339 	adc	a, -5 (ix)
    000016AB DD 77 FD         [19] 4340 	ld	-3 (ix), a
    000016AE DD 7E FC         [19] 4341 	ld	a, -4 (ix)
    000016B1 DD 77 F4         [19] 4342 	ld	-12 (ix), a
    000016B4 DD 7E FD         [19] 4343 	ld	a, -3 (ix)
    000016B7 DD 77 F5         [19] 4344 	ld	-11 (ix), a
                                   4345 ;C:\MSX\MSXgl-1.4.1\engine/src/print.c:964: for (u16 chr = PRINT_DATA.CharFirst; chr <= PRINT_DATA.CharLast; ++chr)
    000016BA DD 34 FE         [23] 4346 	inc	-2 (ix)
    000016BD C2rB3r15         [10] 4347 	jp	NZ,00106$
    000016C0 DD 34 FF         [23] 4348 	inc	-1 (ix)
    000016C3 C3rB3r15         [10] 4349 	jp	00106$
    000016C6                       4350 00108$:
                                   4351 ;C:\MSX\MSXgl-1.4.1\engine/src/print.c:982: }
    000016C6 DD F9            [10] 4352 	ld	sp, ix
    000016C8 DD E1            [14] 4353 	pop	ix
    000016CA E1               [10] 4354 	pop	hl
    000016CB F1               [10] 4355 	pop	af
    000016CC E9               [ 4] 4356 	jp	(hl)
                                   4357 ;C:\MSX\MSXgl-1.4.1\engine/src/print.c:988: void DrawChar_Sprite(u8 chr)
                                   4358 ;	---------------------------------
                                   4359 ; Function DrawChar_Sprite
                                   4360 ; ---------------------------------
    000016CD                       4361 _DrawChar_Sprite::
    000016CD DD E5            [15] 4362 	push	ix
    000016CF DD 21 00 00      [14] 4363 	ld	ix,#0
    000016D3 DD 39            [15] 4364 	add	ix,sp
    000016D5 3B               [ 6] 4365 	dec	sp
    000016D6 4F               [ 4] 4366 	ld	c, a
                                   4367 ;C:\MSX\MSXgl-1.4.1\engine/src/print.c:990: u16 shape = chr - PRINT_DATA.CharFirst + PRINT_DATA.SpritePattern;
    000016D7 21r15r00         [10] 4368 	ld	hl, #_g_PrintData + 21
    000016DA 46               [ 7] 4369 	ld	b, (hl)
    000016DB 79               [ 4] 4370 	ld	a, c
    000016DC 90               [ 4] 4371 	sub	a, b
    000016DD 21r23r00         [10] 4372 	ld	hl, #_g_PrintData + 35
    000016E0 4E               [ 7] 4373 	ld	c, (hl)
    000016E1 81               [ 4] 4374 	add	a, c
    000016E2 DD 77 FF         [19] 4375 	ld	-1 (ix), a
                                   4376 ;C:\MSX\MSXgl-1.4.1\engine/src/print.c:994: VDP_SetSpriteExMultiColor(PRINT_DATA.SpriteID++, PRINT_DATA.CursorX, PRINT_DATA.CursorY, shape, PRINT_DATA.TextColor);
    000016E5 21r07r00         [10] 4377 	ld	hl, #_g_PrintData + 7
    000016E8 5E               [ 7] 4378 	ld	e, (hl)
    000016E9 21r05r00         [10] 4379 	ld	hl, #_g_PrintData + 5
    000016EC 4E               [ 7] 4380 	ld	c, (hl)
    000016ED 21r24r00         [10] 4381 	ld	hl, #_g_PrintData + 36
    000016F0 46               [ 7] 4382 	ld	b, (hl)
    000016F1 78               [ 4] 4383 	ld	a, b
    000016F2 3C               [ 4] 4384 	inc	a
    000016F3 77               [ 7] 4385 	ld	(hl), a
    000016F4 21r08r00         [10] 4386 	ld	hl, #(_g_PrintData + 8)
    000016F7 E5               [11] 4387 	push	hl
    000016F8 DD 56 FF         [19] 4388 	ld	d, -1 (ix)
    000016FB D5               [11] 4389 	push	de
    000016FC 69               [ 4] 4390 	ld	l, c
                                   4391 ;	spillPairReg hl
                                   4392 ;	spillPairReg hl
    000016FD 78               [ 4] 4393 	ld	a, b
    000016FE CDr00r00         [17] 4394 	call	_VDP_SetSpriteExMultiColor
                                   4395 ;C:\MSX\MSXgl-1.4.1\engine/src/print.c:996: }
    00001701 33               [ 6] 4396 	inc	sp
    00001702 DD E1            [14] 4397 	pop	ix
    00001704 C9               [10] 4398 	ret
                                   4399 ;C:\MSX\MSXgl-1.4.1\engine/src/print.c:1014: void Print_SetShadow(bool enable, i8 offsetX, i8 offsetY, u8 color)
                                   4400 ;	---------------------------------
                                   4401 ; Function Print_SetShadow
                                   4402 ; ---------------------------------
    00001705                       4403 _Print_SetShadow::
    00001705 DD E5            [15] 4404 	push	ix
    00001707 DD 21 00 00      [14] 4405 	ld	ix,#0
    0000170B DD 39            [15] 4406 	add	ix,sp
    0000170D 4F               [ 4] 4407 	ld	c, a
    0000170E 5D               [ 4] 4408 	ld	e, l
                                   4409 ;C:\MSX\MSXgl-1.4.1\engine/src/print.c:1016: Print_EnableShadow(enable);
    0000170F D5               [11] 4410 	push	de
    00001710 79               [ 4] 4411 	ld	a, c
    00001711 CDr3Fr17         [17] 4412 	call	_Print_EnableShadow
    00001714 D1               [10] 4413 	pop	de
                                   4414 ;C:\MSX\MSXgl-1.4.1\engine/src/print.c:1017: PRINT_DATA.ShadowOffsetX = 3 + offsetX;
    00001715 01r27r00         [10] 4415 	ld	bc, #_g_PrintData + 39
    00001718 7B               [ 4] 4416 	ld	a, e
    00001719 C6 03            [ 7] 4417 	add	a, #0x03
    0000171B E6 07            [ 7] 4418 	and	a, #0x07
    0000171D 5F               [ 4] 4419 	ld	e, a
    0000171E 0A               [ 7] 4420 	ld	a, (bc)
    0000171F E6 F8            [ 7] 4421 	and	a, #0xf8
    00001721 B3               [ 4] 4422 	or	a, e
    00001722 02               [ 7] 4423 	ld	(bc), a
                                   4424 ;C:\MSX\MSXgl-1.4.1\engine/src/print.c:1018: PRINT_DATA.ShadowOffsetY = 3 + offsetY;
    00001723 DD 7E 04         [19] 4425 	ld	a, 4 (ix)
    00001726 C6 03            [ 7] 4426 	add	a, #0x03
    00001728 07               [ 4] 4427 	rlca
    00001729 07               [ 4] 4428 	rlca
    0000172A 07               [ 4] 4429 	rlca
    0000172B E6 38            [ 7] 4430 	and	a, #0x38
    0000172D 5F               [ 4] 4431 	ld	e, a
    0000172E 0A               [ 7] 4432 	ld	a, (bc)
    0000172F E6 C7            [ 7] 4433 	and	a, #0xc7
    00001731 B3               [ 4] 4434 	or	a, e
    00001732 02               [ 7] 4435 	ld	(bc), a
                                   4436 ;C:\MSX\MSXgl-1.4.1\engine/src/print.c:1019: PRINT_DATA.ShadowColor   = color;
    00001733 21r28r00         [10] 4437 	ld	hl, #(_g_PrintData + 40)
    00001736 DD 7E 05         [19] 4438 	ld	a, 5 (ix)
    00001739 77               [ 7] 4439 	ld	(hl), a
                                   4440 ;C:\MSX\MSXgl-1.4.1\engine/src/print.c:1020: }
    0000173A DD E1            [14] 4441 	pop	ix
    0000173C E1               [10] 4442 	pop	hl
    0000173D F1               [10] 4443 	pop	af
    0000173E E9               [ 4] 4444 	jp	(hl)
                                   4445 ;C:\MSX\MSXgl-1.4.1\engine/src/print.c:1025: void Print_EnableShadow(bool enable)
                                   4446 ;	---------------------------------
                                   4447 ; Function Print_EnableShadow
                                   4448 ; ---------------------------------
    0000173F                       4449 _Print_EnableShadow::
    0000173F 4F               [ 4] 4450 	ld	c, a
                                   4451 ;C:\MSX\MSXgl-1.4.1\engine/src/print.c:1027: PRINT_DATA.FX = enable ? PRINT_FX_SHADOW : 0;
    00001740 21r26r00         [10] 4452 	ld	hl, #_g_PrintData+38
    00001743 79               [ 4] 4453 	ld	a, c
    00001744 B7               [ 4] 4454 	or	a, a
    00001745 28 06            [12] 4455 	jr	Z, 00103$
    00001747 11 01 00         [10] 4456 	ld	de, #0x0001
    0000174A C3r50r17         [10] 4457 	jp	00104$
    0000174D                       4458 00103$:
    0000174D 11 00 00         [10] 4459 	ld	de, #0x0000
    00001750                       4460 00104$:
    00001750 73               [ 7] 4461 	ld	(hl), e
                                   4462 ;C:\MSX\MSXgl-1.4.1\engine/src/print.c:1028: Print_SetMode(enable ? PRINT_MODE_BITMAP_TRANS : PRINT_MODE_BITMAP); // enable default mode to write font data into VRAM
    00001751 79               [ 4] 4463 	ld	a, c
    00001752 B7               [ 4] 4464 	or	a, a
    00001753 28 06            [12] 4465 	jr	Z, 00105$
    00001755 01 01 00         [10] 4466 	ld	bc, #0x0001
    00001758 C3r5Er17         [10] 4467 	jp	00106$
    0000175B                       4468 00105$:
    0000175B 01 00 00         [10] 4469 	ld	bc, #0x0000
    0000175E                       4470 00106$:
    0000175E 79               [ 4] 4471 	ld	a, c
                                   4472 ;C:\MSX\MSXgl-1.4.1\engine/src/print.c:1029: }
    0000175F C3r96r01         [10] 4473 	jp	_Print_SetMode
                                   4474 ;C:\MSX\MSXgl-1.4.1\engine/src/print.c:1054: void Print_SetOutline(bool enable, u8 color)
                                   4475 ;	---------------------------------
                                   4476 ; Function Print_SetOutline
                                   4477 ; ---------------------------------
    00001762                       4478 _Print_SetOutline::
    00001762 47               [ 4] 4479 	ld	b, a
    00001763 4D               [ 4] 4480 	ld	c, l
                                   4481 ;C:\MSX\MSXgl-1.4.1\engine/src/print.c:1056: Print_EnableOutline(enable);
    00001764 C5               [11] 4482 	push	bc
    00001765 78               [ 4] 4483 	ld	a, b
    00001766 CDr6Fr17         [17] 4484 	call	_Print_EnableOutline
    00001769 C1               [10] 4485 	pop	bc
                                   4486 ;C:\MSX\MSXgl-1.4.1\engine/src/print.c:1057: PRINT_DATA.OutlineColor = color;
    0000176A 21r29r00         [10] 4487 	ld	hl, #(_g_PrintData + 41)
    0000176D 71               [ 7] 4488 	ld	(hl), c
                                   4489 ;C:\MSX\MSXgl-1.4.1\engine/src/print.c:1058: }
    0000176E C9               [10] 4490 	ret
                                   4491 ;C:\MSX\MSXgl-1.4.1\engine/src/print.c:1062: void Print_EnableOutline(bool enable)
                                   4492 ;	---------------------------------
                                   4493 ; Function Print_EnableOutline
                                   4494 ; ---------------------------------
    0000176F                       4495 _Print_EnableOutline::
    0000176F 4F               [ 4] 4496 	ld	c, a
                                   4497 ;C:\MSX\MSXgl-1.4.1\engine/src/print.c:1064: PRINT_DATA.FX = enable ? PRINT_FX_OUTLINE : 0;
    00001770 21r26r00         [10] 4498 	ld	hl, #_g_PrintData+38
    00001773 79               [ 4] 4499 	ld	a, c
    00001774 B7               [ 4] 4500 	or	a, a
    00001775 28 06            [12] 4501 	jr	Z, 00103$
    00001777 11 02 00         [10] 4502 	ld	de, #0x0002
    0000177A C3r80r17         [10] 4503 	jp	00104$
    0000177D                       4504 00103$:
    0000177D 11 00 00         [10] 4505 	ld	de, #0x0000
    00001780                       4506 00104$:
    00001780 73               [ 7] 4507 	ld	(hl), e
                                   4508 ;C:\MSX\MSXgl-1.4.1\engine/src/print.c:1065: Print_SetMode(enable ? PRINT_MODE_BITMAP_TRANS : PRINT_MODE_BITMAP); // enable default mode to write font data into VRAM
    00001781 79               [ 4] 4509 	ld	a, c
    00001782 B7               [ 4] 4510 	or	a, a
    00001783 28 06            [12] 4511 	jr	Z, 00105$
    00001785 01 01 00         [10] 4512 	ld	bc, #0x0001
    00001788 C3r8Er17         [10] 4513 	jp	00106$
    0000178B                       4514 00105$:
    0000178B 01 00 00         [10] 4515 	ld	bc, #0x0000
    0000178E                       4516 00106$:
    0000178E 79               [ 4] 4517 	ld	a, c
                                   4518 ;C:\MSX\MSXgl-1.4.1\engine/src/print.c:1066: }
    0000178F C3r96r01         [10] 4519 	jp	_Print_SetMode
                                   4520 ;C:\MSX\MSXgl-1.4.1\engine/src/print.c:1096: void Print_Clear()
                                   4521 ;	---------------------------------
                                   4522 ; Function Print_Clear
                                   4523 ; ---------------------------------
    00001792                       4524 _Print_Clear::
                                   4525 ;C:\MSX\MSXgl-1.4.1\engine/src/vdp.h:483: inline u8 VDP_GetMode() { return g_VDP_Data.Mode; }
                                   4526 ;C:\MSX\MSXgl-1.4.1\engine/src/vdp.h:499: return mode >= VDP_MODE_GRAPHIC4;
    00001792 3Ar00r00         [13] 4527 	ld	a, (#_g_VDP_Data+0)
    00001795 D6 06            [ 7] 4528 	sub	a, #0x06
    00001797 3E 00            [ 7] 4529 	ld	a, #0x00
    00001799 17               [ 4] 4530 	rla
                                   4531 ;C:\MSX\MSXgl-1.4.1\engine/src/print.c:1098: if (VDP_IsBitmapMode(VDP_GetMode())) // Bitmap mode
    0000179A EE 01            [ 7] 4532 	xor	a,#0x01
    0000179C 28 31            [12] 4533 	jr	Z, 00102$
                                   4534 ;C:\MSX\MSXgl-1.4.1\engine/src/print.c:1101: u8 color = Print_MergeColor(PRINT_DATA.BGColor);
    0000179E 3Ar14r00         [13] 4535 	ld	a, (#_g_PrintData + 20)
    000017A1 CDr42r00         [17] 4536 	call	_Print_MergeColor
    000017A4 4F               [ 4] 4537 	ld	c, a
                                   4538 ;C:\MSX\MSXgl-1.4.1\engine/src/print.c:1102: VDP_CommandHMMV(0, 0, PRINT_DATA.ScreenWidth, 212, color); // @todo Check the 192/212 lines parameter
    000017A5 ED 5Br1Br00      [20] 4539 	ld	de, (#_g_PrintData + 27)
                                   4540 ;C:\MSX\MSXgl-1.4.1\engine/src/vdp_inl.h:167: g_VDP_Command.DX = dx; 
    000017A9 21 00 00         [10] 4541 	ld	hl, #0x0000
    000017AC 22r04r00         [16] 4542 	ld	((_g_VDP_Command + 4)), hl
                                   4543 ;C:\MSX\MSXgl-1.4.1\engine/src/vdp_inl.h:168: g_VDP_Command.DY = dy; 
    000017AF 22r06r00         [16] 4544 	ld	((_g_VDP_Command + 6)), hl
                                   4545 ;C:\MSX\MSXgl-1.4.1\engine/src/vdp_inl.h:169: g_VDP_Command.NX = nx; 
    000017B2 ED 53r08r00      [20] 4546 	ld	((_g_VDP_Command + 8)), de
                                   4547 ;C:\MSX\MSXgl-1.4.1\engine/src/vdp_inl.h:170: g_VDP_Command.NY = ny; 
    000017B6 2E D4            [ 7] 4548 	ld	l, #0xd4
    000017B8 22r0Ar00         [16] 4549 	ld	((_g_VDP_Command + 10)), hl
                                   4550 ;C:\MSX\MSXgl-1.4.1\engine/src/vdp_inl.h:171: g_VDP_Command.CLR = col; 
    000017BB 21r0Cr00         [10] 4551 	ld	hl, #(_g_VDP_Command + 12)
    000017BE 71               [ 7] 4552 	ld	(hl), c
                                   4553 ;C:\MSX\MSXgl-1.4.1\engine/src/vdp_inl.h:172: g_VDP_Command.ARG = arg; 
    000017BF 21r0Dr00         [10] 4554 	ld	hl, #(_g_VDP_Command + 13)
    000017C2 36 00            [10] 4555 	ld	(hl), #0x00
                                   4556 ;C:\MSX\MSXgl-1.4.1\engine/src/vdp_inl.h:173: g_VDP_Command.CMD = VDP_CMD_HMMV;
    000017C4 21r0Er00         [10] 4557 	ld	hl, #(_g_VDP_Command + 14)
    000017C7 36 C0            [10] 4558 	ld	(hl), #0xc0
                                   4559 ;C:\MSX\MSXgl-1.4.1\engine/src/vdp_inl.h:174: VDP_CommandSetupR36();
    000017C9 CDr00r00         [17] 4560 	call	_VDP_CommandSetupR36
                                   4561 ;C:\MSX\MSXgl-1.4.1\engine/src/print.c:1103: VDP_CommandWait();
    000017CC C3r00r00         [10] 4562 	jp	_VDP_CommandWait
    000017CF                       4563 00102$:
                                   4564 ;C:\MSX\MSXgl-1.4.1\engine/src/print.c:1109: VDP_FillVRAM(0, g_ScreenLayoutLow, g_ScreenLayoutHigh, 24 * PRINT_DATA.ScreenWidth);
    000017CF 2Ar1Br00         [16] 4565 	ld	hl, (#(_g_PrintData + 27) + 0)
    000017D2 4D               [ 4] 4566 	ld	c, l
    000017D3 44               [ 4] 4567 	ld	b, h
    000017D4 29               [11] 4568 	add	hl, hl
    000017D5 09               [11] 4569 	add	hl, bc
    000017D6 29               [11] 4570 	add	hl, hl
    000017D7 29               [11] 4571 	add	hl, hl
    000017D8 29               [11] 4572 	add	hl, hl
    000017D9 E5               [11] 4573 	push	hl
    000017DA 3Ar00r00         [13] 4574 	ld	a, (_g_ScreenLayoutHigh+0)
    000017DD F5               [11] 4575 	push	af
    000017DE 33               [ 6] 4576 	inc	sp
    000017DF ED 5Br00r00      [20] 4577 	ld	de, (_g_ScreenLayoutLow)
    000017E3 AF               [ 4] 4578 	xor	a, a
    000017E4 CDr00r00         [17] 4579 	call	_VDP_FillVRAM_128K
                                   4580 ;C:\MSX\MSXgl-1.4.1\engine/src/print.c:1112: }
    000017E7 C9               [10] 4581 	ret
                                   4582 ;C:\MSX\MSXgl-1.4.1\engine/src/print.c:1117: void Print_Backspace(u8 num)
                                   4583 ;	---------------------------------
                                   4584 ; Function Print_Backspace
                                   4585 ; ---------------------------------
    000017E8                       4586 _Print_Backspace::
    000017E8 DD E5            [15] 4587 	push	ix
    000017EA DD 21 00 00      [14] 4588 	ld	ix,#0
    000017EE DD 39            [15] 4589 	add	ix,sp
    000017F0 21 FA FF         [10] 4590 	ld	hl, #-6
    000017F3 39               [11] 4591 	add	hl, sp
    000017F4 F9               [ 6] 4592 	ld	sp, hl
    000017F5 DD 77 FF         [19] 4593 	ld	-1 (ix), a
                                   4594 ;C:\MSX\MSXgl-1.4.1\engine/src/vdp.h:483: inline u8 VDP_GetMode() { return g_VDP_Data.Mode; }
                                   4595 ;C:\MSX\MSXgl-1.4.1\engine/src/vdp.h:499: return mode >= VDP_MODE_GRAPHIC4;
    000017F8 3Ar00r00         [13] 4596 	ld	a, (#_g_VDP_Data+0)
    000017FB D6 06            [ 7] 4597 	sub	a, #0x06
    000017FD 3E 00            [ 7] 4598 	ld	a, #0x00
    000017FF 17               [ 4] 4599 	rla
                                   4600 ;C:\MSX\MSXgl-1.4.1\engine/src/print.c:1120: if (VDP_IsBitmapMode(VDP_GetMode())) // Bitmap mode
    00001800 EE 01            [ 7] 4601 	xor	a,#0x01
    00001802 CAr98r18         [10] 4602 	jp	Z, 00105$
                                   4603 ;C:\MSX\MSXgl-1.4.1\engine/src/print.c:1123: u16 x = PRINT_W(PRINT_DATA.UnitX) * num;
    00001805 3Ar02r00         [13] 4604 	ld	a, (#_g_PrintData + 2)
    00001808 DD 5E FF         [19] 4605 	ld	e, -1 (ix)
    0000180B 67               [ 4] 4606 	ld	h, a
                                   4607 ;	spillPairReg hl
                                   4608 ;	spillPairReg hl
    0000180C 2E 00            [ 7] 4609 	ld	l, #0x00
    0000180E 55               [ 4] 4610 	ld	d, l
    0000180F 06 08            [ 7] 4611 	ld	b, #0x08
    00001811                       4612 00123$:
    00001811 29               [11] 4613 	add	hl, hl
    00001812 30 01            [12] 4614 	jr	NC, 00124$
    00001814 19               [11] 4615 	add	hl, de
    00001815                       4616 00124$:
    00001815 10 FA            [13] 4617 	djnz	00123$
    00001817 4D               [ 4] 4618 	ld	c, l
    00001818 44               [ 4] 4619 	ld	b, h
                                   4620 ;C:\MSX\MSXgl-1.4.1\engine/src/print.c:1124: if (x >  PRINT_DATA.CursorX)
    00001819 2Ar05r00         [16] 4621 	ld	hl, (#(_g_PrintData + 5) + 0)
    0000181C 7D               [ 4] 4622 	ld	a, l
    0000181D 91               [ 4] 4623 	sub	a, c
    0000181E 7C               [ 4] 4624 	ld	a, h
    0000181F 98               [ 4] 4625 	sbc	a, b
    00001820 30 06            [12] 4626 	jr	NC, 00102$
                                   4627 ;C:\MSX\MSXgl-1.4.1\engine/src/print.c:1125: x = 0;
    00001822 01 00 00         [10] 4628 	ld	bc, #0x0000
    00001825 C3r2Er18         [10] 4629 	jp	00103$
    00001828                       4630 00102$:
                                   4631 ;C:\MSX\MSXgl-1.4.1\engine/src/print.c:1127: x = PRINT_DATA.CursorX - x;
    00001828 7D               [ 4] 4632 	ld	a, l
    00001829 91               [ 4] 4633 	sub	a, c
    0000182A 4F               [ 4] 4634 	ld	c, a
    0000182B 7C               [ 4] 4635 	ld	a, h
    0000182C 98               [ 4] 4636 	sbc	a, b
    0000182D 47               [ 4] 4637 	ld	b, a
    0000182E                       4638 00103$:
                                   4639 ;C:\MSX\MSXgl-1.4.1\engine/src/print.c:1129: u8 color = Print_MergeColor(PRINT_DATA.BGColor);
    0000182E 21r14r00         [10] 4640 	ld	hl, #_g_PrintData + 20
    00001831 5E               [ 7] 4641 	ld	e, (hl)
    00001832 C5               [11] 4642 	push	bc
    00001833 7B               [ 4] 4643 	ld	a, e
    00001834 CDr42r00         [17] 4644 	call	_Print_MergeColor
    00001837 C1               [10] 4645 	pop	bc
    00001838 DD 77 FA         [19] 4646 	ld	-6 (ix), a
                                   4647 ;C:\MSX\MSXgl-1.4.1\engine/src/print.c:1130: VDP_CommandHMMV(x, PRINT_DATA.CursorY, x - PRINT_DATA.CursorX, PRINT_H(PRINT_DATA.UnitY), color); // @todo Check the 192/212 lines parameter
    0000183B 3Ar03r00         [13] 4648 	ld	a, (#_g_PrintData + 3)
    0000183E DD 77 FB         [19] 4649 	ld	-5 (ix), a
    00001841 DD 36 FC 00      [19] 4650 	ld	-4 (ix), #0x00
    00001845 2Ar05r00         [16] 4651 	ld	hl, (#(_g_PrintData + 5) + 0)
    00001848 79               [ 4] 4652 	ld	a, c
    00001849 95               [ 4] 4653 	sub	a, l
    0000184A 5F               [ 4] 4654 	ld	e, a
    0000184B 78               [ 4] 4655 	ld	a, b
    0000184C 9C               [ 4] 4656 	sbc	a, h
    0000184D 57               [ 4] 4657 	ld	d, a
    0000184E 3Ar07r00         [13] 4658 	ld	a, (#_g_PrintData + 7)
    00001851 DD 77 FD         [19] 4659 	ld	-3 (ix), a
    00001854 DD 36 FE 00      [19] 4660 	ld	-2 (ix), #0x00
                                   4661 ;C:\MSX\MSXgl-1.4.1\engine/src/vdp_inl.h:167: g_VDP_Command.DX = dx; 
    00001858 ED 43r04r00      [20] 4662 	ld	((_g_VDP_Command + 4)), bc
                                   4663 ;C:\MSX\MSXgl-1.4.1\engine/src/vdp_inl.h:168: g_VDP_Command.DY = dy; 
    0000185C 21r06r00         [10] 4664 	ld	hl, #(_g_VDP_Command + 6)
    0000185F DD 7E FD         [19] 4665 	ld	a, -3 (ix)
    00001862 77               [ 7] 4666 	ld	(hl), a
    00001863 23               [ 6] 4667 	inc	hl
    00001864 DD 7E FE         [19] 4668 	ld	a, -2 (ix)
    00001867 77               [ 7] 4669 	ld	(hl), a
                                   4670 ;C:\MSX\MSXgl-1.4.1\engine/src/vdp_inl.h:169: g_VDP_Command.NX = nx; 
    00001868 ED 53r08r00      [20] 4671 	ld	((_g_VDP_Command + 8)), de
                                   4672 ;C:\MSX\MSXgl-1.4.1\engine/src/vdp_inl.h:170: g_VDP_Command.NY = ny; 
    0000186C 21r0Ar00         [10] 4673 	ld	hl, #(_g_VDP_Command + 10)
    0000186F DD 7E FB         [19] 4674 	ld	a, -5 (ix)
    00001872 77               [ 7] 4675 	ld	(hl), a
    00001873 23               [ 6] 4676 	inc	hl
    00001874 DD 7E FC         [19] 4677 	ld	a, -4 (ix)
    00001877 77               [ 7] 4678 	ld	(hl), a
                                   4679 ;C:\MSX\MSXgl-1.4.1\engine/src/vdp_inl.h:171: g_VDP_Command.CLR = col; 
    00001878 21r0Cr00         [10] 4680 	ld	hl, #(_g_VDP_Command + 12)
    0000187B DD 7E FA         [19] 4681 	ld	a, -6 (ix)
    0000187E 77               [ 7] 4682 	ld	(hl), a
                                   4683 ;C:\MSX\MSXgl-1.4.1\engine/src/vdp_inl.h:172: g_VDP_Command.ARG = arg; 
    0000187F 11r0Dr00         [10] 4684 	ld	de, #_g_VDP_Command + 13
    00001882 AF               [ 4] 4685 	xor	a, a
    00001883 12               [ 7] 4686 	ld	(de), a
                                   4687 ;C:\MSX\MSXgl-1.4.1\engine/src/vdp_inl.h:173: g_VDP_Command.CMD = VDP_CMD_HMMV;
    00001884 21r0Er00         [10] 4688 	ld	hl, #(_g_VDP_Command + 14)
    00001887 36 C0            [10] 4689 	ld	(hl), #0xc0
                                   4690 ;C:\MSX\MSXgl-1.4.1\engine/src/vdp_inl.h:174: VDP_CommandSetupR36();
    00001889 C5               [11] 4691 	push	bc
    0000188A CDr00r00         [17] 4692 	call	_VDP_CommandSetupR36
    0000188D C1               [10] 4693 	pop	bc
                                   4694 ;C:\MSX\MSXgl-1.4.1\engine/src/print.c:1131: PRINT_DATA.CursorX = x;
    0000188E ED 43r05r00      [20] 4695 	ld	((_g_PrintData + 5)), bc
                                   4696 ;C:\MSX\MSXgl-1.4.1\engine/src/print.c:1132: VDP_CommandWait();	
    00001892 CDr00r00         [17] 4697 	call	_VDP_CommandWait
    00001895 C3rD7r18         [10] 4698 	jp	00111$
    00001898                       4699 00105$:
                                   4700 ;C:\MSX\MSXgl-1.4.1\engine/src/print.c:1138: u16 dst = g_ScreenLayoutLow + (PRINT_DATA.CursorY * PRINT_DATA.ScreenWidth) + PRINT_DATA.CursorX - num;
    00001898 21r07r00         [10] 4701 	ld	hl, #_g_PrintData + 7
    0000189B 6E               [ 7] 4702 	ld	l, (hl)
    0000189C ED 5Br1Br00      [20] 4703 	ld	de, (#_g_PrintData + 27)
                                   4704 ;	spillPairReg hl
                                   4705 ;	spillPairReg hl
    000018A0 26 00            [ 7] 4706 	ld	h, #0x00
                                   4707 ;	spillPairReg hl
                                   4708 ;	spillPairReg hl
    000018A2 CDr00r00         [17] 4709 	call	__mulint
    000018A5 FD 2Ar00r00      [20] 4710 	ld	iy, (_g_ScreenLayoutLow)
    000018A9 FD 19            [15] 4711 	add	iy, de
    000018AB 2Ar05r00         [16] 4712 	ld	hl, (#(_g_PrintData + 5) + 0)
    000018AE FD E5            [15] 4713 	push	iy
    000018B0 D1               [10] 4714 	pop	de
    000018B1 19               [11] 4715 	add	hl, de
    000018B2 DD 4E FF         [19] 4716 	ld	c, -1 (ix)
    000018B5 06 00            [ 7] 4717 	ld	b, #0x00
    000018B7 BF               [ 4] 4718 	cp	a, a
    000018B8 ED 42            [15] 4719 	sbc	hl, bc
    000018BA EB               [ 4] 4720 	ex	de, hl
                                   4721 ;C:\MSX\MSXgl-1.4.1\engine/src/print.c:1139: VDP_FillVRAM(0, dst, g_ScreenLayoutHigh, num);
    000018BB DD 6E FF         [19] 4722 	ld	l, -1 (ix)
                                   4723 ;	spillPairReg hl
                                   4724 ;	spillPairReg hl
    000018BE 26 00            [ 7] 4725 	ld	h, #0x00
                                   4726 ;	spillPairReg hl
                                   4727 ;	spillPairReg hl
    000018C0 C5               [11] 4728 	push	bc
    000018C1 E5               [11] 4729 	push	hl
    000018C2 3Ar00r00         [13] 4730 	ld	a, (_g_ScreenLayoutHigh+0)
    000018C5 F5               [11] 4731 	push	af
    000018C6 33               [ 6] 4732 	inc	sp
    000018C7 AF               [ 4] 4733 	xor	a, a
    000018C8 CDr00r00         [17] 4734 	call	_VDP_FillVRAM_128K
    000018CB C1               [10] 4735 	pop	bc
                                   4736 ;C:\MSX\MSXgl-1.4.1\engine/src/print.c:1140: PRINT_DATA.CursorX -= num;
    000018CC 2Ar05r00         [16] 4737 	ld	hl, (#(_g_PrintData + 5) + 0)
    000018CF BF               [ 4] 4738 	cp	a, a
    000018D0 ED 42            [15] 4739 	sbc	hl, bc
    000018D2 EB               [ 4] 4740 	ex	de, hl
    000018D3 ED 53r05r00      [20] 4741 	ld	((_g_PrintData + 5)), de
    000018D7                       4742 00111$:
                                   4743 ;C:\MSX\MSXgl-1.4.1\engine/src/print.c:1143: }
    000018D7 DD F9            [10] 4744 	ld	sp, ix
    000018D9 DD E1            [14] 4745 	pop	ix
    000018DB C9               [10] 4746 	ret
                                   4747 ;C:\MSX\MSXgl-1.4.1\engine/src/print.c:1148: void Print_DrawChar(u8 chr)
                                   4748 ;	---------------------------------
                                   4749 ; Function Print_DrawChar
                                   4750 ; ---------------------------------
    000018DC                       4751 _Print_DrawChar::
    000018DC 4F               [ 4] 4752 	ld	c, a
                                   4753 ;C:\MSX\MSXgl-1.4.1\engine/src/print.c:1151: if (PRINT_DATA.CursorX + PRINT_W(PRINT_DATA.UnitX) > PRINT_DATA.ScreenWidth) // Handle automatic new-line when 
    000018DD ED 5Br05r00      [20] 4754 	ld	de, (#(_g_PrintData + 5) + 0)
    000018E1 3Ar02r00         [13] 4755 	ld	a, (#(_g_PrintData + 2) + 0)
    000018E4 6F               [ 4] 4756 	ld	l, a
                                   4757 ;	spillPairReg hl
                                   4758 ;	spillPairReg hl
    000018E5 26 00            [ 7] 4759 	ld	h, #0x00
                                   4760 ;	spillPairReg hl
                                   4761 ;	spillPairReg hl
    000018E7 19               [11] 4762 	add	hl, de
    000018E8 EB               [ 4] 4763 	ex	de, hl
    000018E9 2Ar1Br00         [16] 4764 	ld	hl, (#_g_PrintData + 27)
    000018EC AF               [ 4] 4765 	xor	a, a
    000018ED ED 52            [15] 4766 	sbc	hl, de
    000018EF 30 10            [12] 4767 	jr	NC, 00102$
                                   4768 ;C:\MSX\MSXgl-1.4.1\engine/src/print.h:500: PRINT_DATA.CursorX = 0;
    000018F1 21 00 00         [10] 4769 	ld	hl, #0x0000
    000018F4 22r05r00         [16] 4770 	ld	((_g_PrintData + 5)), hl
                                   4771 ;C:\MSX\MSXgl-1.4.1\engine/src/print.h:501: PRINT_DATA.CursorY += PRINT_H(PRINT_DATA.UnitY);
    000018F7 11r07r00         [10] 4772 	ld	de, #_g_PrintData + 7
    000018FA 1A               [ 7] 4773 	ld	a, (de)
    000018FB 21r03r00         [10] 4774 	ld	hl, #_g_PrintData + 3
    000018FE 46               [ 7] 4775 	ld	b, (hl)
    000018FF 80               [ 4] 4776 	add	a, b
    00001900 12               [ 7] 4777 	ld	(de), a
                                   4778 ;C:\MSX\MSXgl-1.4.1\engine/src/print.c:1152: Print_Return();
    00001901                       4779 00102$:
                                   4780 ;C:\MSX\MSXgl-1.4.1\engine/src/print.c:1154: VDP_CommandWait();
    00001901 CDr00r00         [17] 4781 	call	_VDP_CommandWait
                                   4782 ;C:\MSX\MSXgl-1.4.1\engine/src/print.c:1157: PRINT_DATA.DrawChar(chr);
    00001904 2Ar18r00         [16] 4783 	ld	hl, (#_g_PrintData + 24)
    00001907 79               [ 4] 4784 	ld	a, c
    00001908 CDr00r00         [17] 4785 	call	___sdcc_call_hl
                                   4786 ;C:\MSX\MSXgl-1.4.1\engine/src/print.c:1160: PRINT_DATA.CursorX += PRINT_W(PRINT_DATA.UnitX);
    0000190B ED 4Br05r00      [20] 4787 	ld	bc, (#(_g_PrintData + 5) + 0)
    0000190F 3Ar02r00         [13] 4788 	ld	a, (#(_g_PrintData + 2) + 0)
    00001912 6F               [ 4] 4789 	ld	l, a
                                   4790 ;	spillPairReg hl
                                   4791 ;	spillPairReg hl
    00001913 26 00            [ 7] 4792 	ld	h, #0x00
                                   4793 ;	spillPairReg hl
                                   4794 ;	spillPairReg hl
    00001915 09               [11] 4795 	add	hl, bc
    00001916 EB               [ 4] 4796 	ex	de, hl
    00001917 ED 53r05r00      [20] 4797 	ld	((_g_PrintData + 5)), de
                                   4798 ;C:\MSX\MSXgl-1.4.1\engine/src/print.c:1161: }
    0000191B C9               [10] 4799 	ret
                                   4800 ;C:\MSX\MSXgl-1.4.1\engine/src/print.c:1167: void Print_DrawCharX(c8 chr, u8 num)
                                   4801 ;	---------------------------------
                                   4802 ; Function Print_DrawCharX
                                   4803 ; ---------------------------------
    0000191C                       4804 _Print_DrawCharX::
    0000191C 4F               [ 4] 4805 	ld	c, a
                                   4806 ;C:\MSX\MSXgl-1.4.1\engine/src/print.c:1169: for (u8 i = 0; i < num; ++i)
    0000191D 06 00            [ 7] 4807 	ld	b, #0x00
    0000191F                       4808 00103$:
    0000191F 78               [ 4] 4809 	ld	a, b
    00001920 95               [ 4] 4810 	sub	a, l
    00001921 D0               [11] 4811 	ret	NC
                                   4812 ;C:\MSX\MSXgl-1.4.1\engine/src/print.c:1170: Print_DrawChar(chr);
    00001922 E5               [11] 4813 	push	hl
    00001923 C5               [11] 4814 	push	bc
    00001924 79               [ 4] 4815 	ld	a, c
    00001925 CDrDCr18         [17] 4816 	call	_Print_DrawChar
    00001928 C1               [10] 4817 	pop	bc
    00001929 E1               [10] 4818 	pop	hl
                                   4819 ;C:\MSX\MSXgl-1.4.1\engine/src/print.c:1169: for (u8 i = 0; i < num; ++i)
    0000192A 04               [ 4] 4820 	inc	b
                                   4821 ;C:\MSX\MSXgl-1.4.1\engine/src/print.c:1171: }
    0000192B C3r1Fr19         [10] 4822 	jp	00103$
                                   4823 ;C:\MSX\MSXgl-1.4.1\engine/src/print.c:1176: void Print_DrawText(const c8* str)
                                   4824 ;	---------------------------------
                                   4825 ; Function Print_DrawText
                                   4826 ; ---------------------------------
    0000192E                       4827 _Print_DrawText::
    0000192E DD E5            [15] 4828 	push	ix
    00001930 DD 21 00 00      [14] 4829 	ld	ix,#0
    00001934 DD 39            [15] 4830 	add	ix,sp
    00001936 F5               [11] 4831 	push	af
    00001937 4D               [ 4] 4832 	ld	c, l
    00001938 44               [ 4] 4833 	ld	b, h
                                   4834 ;C:\MSX\MSXgl-1.4.1\engine/src/print.c:1178: while (*str != 0)
    00001939                       4835 00110$:
    00001939 0A               [ 7] 4836 	ld	a, (bc)
                                   4837 ;C:\MSX\MSXgl-1.4.1\engine/src/print.c:1180: if (*str == '\t')
    0000193A 5F               [ 4] 4838 	ld	e,a
    0000193B B7               [ 4] 4839 	or	a,a
    0000193C 28 7B            [12] 4840 	jr	Z, 00116$
    0000193E D6 09            [ 7] 4841 	sub	a, #0x09
    00001940 20 3D            [12] 4842 	jr	NZ, 00108$
                                   4843 ;C:\MSX\MSXgl-1.4.1\engine/src/print.h:492: PRINT_DATA.CursorX += PRINT_W(PRINT_DATA.UnitX) + PRINT_DATA.TabSize - 1;
    00001942 ED 5Br05r00      [20] 4844 	ld	de, (#(_g_PrintData + 5) + 0)
    00001946 3Ar02r00         [13] 4845 	ld	a, (#(_g_PrintData + 2) + 0)
    00001949 DD 77 FE         [19] 4846 	ld	-2 (ix), a
    0000194C DD 36 FF 00      [19] 4847 	ld	-1 (ix), #0x00
    00001950 3Ar04r00         [13] 4848 	ld	a, (#(_g_PrintData + 4) + 0)
    00001953 26 00            [ 7] 4849 	ld	h, #0x00
                                   4850 ;	spillPairReg hl
                                   4851 ;	spillPairReg hl
    00001955 DD 86 FE         [19] 4852 	add	a, -2 (ix)
    00001958 6F               [ 4] 4853 	ld	l, a
                                   4854 ;	spillPairReg hl
                                   4855 ;	spillPairReg hl
    00001959 7C               [ 4] 4856 	ld	a, h
    0000195A DD 8E FF         [19] 4857 	adc	a, -1 (ix)
    0000195D 67               [ 4] 4858 	ld	h, a
                                   4859 ;	spillPairReg hl
                                   4860 ;	spillPairReg hl
    0000195E 2B               [ 6] 4861 	dec	hl
    0000195F 19               [11] 4862 	add	hl, de
    00001960 EB               [ 4] 4863 	ex	de, hl
    00001961 ED 53r05r00      [20] 4864 	ld	((_g_PrintData + 5)), de
                                   4865 ;C:\MSX\MSXgl-1.4.1\engine/src/print.h:493: PRINT_DATA.CursorX &= ~(PRINT_DATA.TabSize - 1);
    00001965 3Ar04r00         [13] 4866 	ld	a, (#(_g_PrintData + 4) + 0)
    00001968 26 00            [ 7] 4867 	ld	h, #0x00
                                   4868 ;	spillPairReg hl
                                   4869 ;	spillPairReg hl
    0000196A 6F               [ 4] 4870 	ld	l, a
    0000196B 2B               [ 6] 4871 	dec	hl
    0000196C 7D               [ 4] 4872 	ld	a, l
    0000196D 2F               [ 4] 4873 	cpl
    0000196E F5               [11] 4874 	push	af
    0000196F 7C               [ 4] 4875 	ld	a, h
    00001970 2F               [ 4] 4876 	cpl
    00001971 6F               [ 4] 4877 	ld	l, a
                                   4878 ;	spillPairReg hl
                                   4879 ;	spillPairReg hl
    00001972 F1               [10] 4880 	pop	af
    00001973 A3               [ 4] 4881 	and	a, e
    00001974 5F               [ 4] 4882 	ld	e, a
    00001975 7D               [ 4] 4883 	ld	a, l
    00001976 A2               [ 4] 4884 	and	a, d
    00001977 57               [ 4] 4885 	ld	d, a
    00001978 ED 53r05r00      [20] 4886 	ld	((_g_PrintData + 5)), de
                                   4887 ;C:\MSX\MSXgl-1.4.1\engine/src/print.c:1181: Print_Tab();
    0000197C C3rB5r19         [10] 4888 	jp	00109$
    0000197F                       4889 00108$:
                                   4890 ;C:\MSX\MSXgl-1.4.1\engine/src/print.c:1182: else if (*str == '\n')
    0000197F 7B               [ 4] 4891 	ld	a, e
    00001980 D6 0A            [ 7] 4892 	sub	a, #0x0a
    00001982 20 13            [12] 4893 	jr	NZ, 00105$
                                   4894 ;C:\MSX\MSXgl-1.4.1\engine/src/print.h:500: PRINT_DATA.CursorX = 0;
    00001984 21 00 00         [10] 4895 	ld	hl, #0x0000
    00001987 22r05r00         [16] 4896 	ld	((_g_PrintData + 5)), hl
                                   4897 ;C:\MSX\MSXgl-1.4.1\engine/src/print.h:501: PRINT_DATA.CursorY += PRINT_H(PRINT_DATA.UnitY);
    0000198A 11r07r00         [10] 4898 	ld	de, #_g_PrintData + 7
    0000198D 1A               [ 7] 4899 	ld	a, (de)
    0000198E 21r03r00         [10] 4900 	ld	hl, #_g_PrintData + 3
    00001991 6E               [ 7] 4901 	ld	l, (hl)
                                   4902 ;	spillPairReg hl
    00001992 85               [ 4] 4903 	add	a, l
    00001993 12               [ 7] 4904 	ld	(de), a
                                   4905 ;C:\MSX\MSXgl-1.4.1\engine/src/print.c:1183: Print_Return();
    00001994 C3rB5r19         [10] 4906 	jp	00109$
    00001997                       4907 00105$:
                                   4908 ;C:\MSX\MSXgl-1.4.1\engine/src/print.c:1185: else if (*str == ' ')
    00001997 7B               [ 4] 4909 	ld	a, e
    00001998 D6 20            [ 7] 4910 	sub	a, #0x20
    0000199A 20 13            [12] 4911 	jr	NZ, 00102$
                                   4912 ;C:\MSX\MSXgl-1.4.1\engine/src/print.h:486: inline void Print_Space() { PRINT_DATA.CursorX += PRINT_W(PRINT_DATA.UnitX); }
    0000199C ED 5Br05r00      [20] 4913 	ld	de, (#(_g_PrintData + 5) + 0)
    000019A0 3Ar02r00         [13] 4914 	ld	a, (#(_g_PrintData + 2) + 0)
    000019A3 6F               [ 4] 4915 	ld	l, a
                                   4916 ;	spillPairReg hl
                                   4917 ;	spillPairReg hl
    000019A4 26 00            [ 7] 4918 	ld	h, #0x00
                                   4919 ;	spillPairReg hl
                                   4920 ;	spillPairReg hl
    000019A6 19               [11] 4921 	add	hl, de
    000019A7 EB               [ 4] 4922 	ex	de, hl
    000019A8 ED 53r05r00      [20] 4923 	ld	((_g_PrintData + 5)), de
                                   4924 ;C:\MSX\MSXgl-1.4.1\engine/src/print.c:1186: Print_Space();
    000019AC C3rB5r19         [10] 4925 	jp	00109$
    000019AF                       4926 00102$:
                                   4927 ;C:\MSX\MSXgl-1.4.1\engine/src/print.c:1189: Print_DrawChar(*str);
    000019AF C5               [11] 4928 	push	bc
    000019B0 7B               [ 4] 4929 	ld	a, e
    000019B1 CDrDCr18         [17] 4930 	call	_Print_DrawChar
    000019B4 C1               [10] 4931 	pop	bc
    000019B5                       4932 00109$:
                                   4933 ;C:\MSX\MSXgl-1.4.1\engine/src/print.c:1190: str++;
    000019B5 03               [ 6] 4934 	inc	bc
    000019B6 C3r39r19         [10] 4935 	jp	00110$
    000019B9                       4936 00116$:
                                   4937 ;C:\MSX\MSXgl-1.4.1\engine/src/print.c:1192: }
    000019B9 DD F9            [10] 4938 	ld	sp, ix
    000019BB DD E1            [14] 4939 	pop	ix
    000019BD C9               [10] 4940 	ret
                                   4941 ;C:\MSX\MSXgl-1.4.1\engine/src/print.c:1197: void Print_DrawBin8(u8 value)
                                   4942 ;	---------------------------------
                                   4943 ; Function Print_DrawBin8
                                   4944 ; ---------------------------------
    000019BE                       4945 _Print_DrawBin8::
    000019BE 6F               [ 4] 4946 	ld	l, a
                                   4947 ;	spillPairReg hl
                                   4948 ;	spillPairReg hl
                                   4949 ;C:\MSX\MSXgl-1.4.1\engine/src/print.c:1199: u8 flag = (u8)(1 << 7);
                                   4950 ;C:\MSX\MSXgl-1.4.1\engine/src/print.c:1200: for (u8 i = 0; i < 8; ++i)
    000019BF 01 80 00         [10] 4951 	ld	bc, #0x80
    000019C2                       4952 00103$:
    000019C2 78               [ 4] 4953 	ld	a, b
    000019C3 D6 08            [ 7] 4954 	sub	a, #0x08
    000019C5 D0               [11] 4955 	ret	NC
                                   4956 ;C:\MSX\MSXgl-1.4.1\engine/src/print.c:1202: Print_DrawChar((value & flag) ? '1' : '0');
    000019C6 7D               [ 4] 4957 	ld	a, l
    000019C7 A1               [ 4] 4958 	and	a,c
    000019C8 28 06            [12] 4959 	jr	Z, 00107$
    000019CA 11 31 00         [10] 4960 	ld	de, #0x0031
    000019CD C3rD3r19         [10] 4961 	jp	00108$
    000019D0                       4962 00107$:
    000019D0 11 30 00         [10] 4963 	ld	de, #0x0030
    000019D3                       4964 00108$:
    000019D3 E5               [11] 4965 	push	hl
    000019D4 C5               [11] 4966 	push	bc
    000019D5 7B               [ 4] 4967 	ld	a, e
    000019D6 CDrDCr18         [17] 4968 	call	_Print_DrawChar
    000019D9 C1               [10] 4969 	pop	bc
    000019DA E1               [10] 4970 	pop	hl
                                   4971 ;C:\MSX\MSXgl-1.4.1\engine/src/print.c:1203: flag >>= 1;
    000019DB CB 39            [ 8] 4972 	srl	c
                                   4973 ;C:\MSX\MSXgl-1.4.1\engine/src/print.c:1200: for (u8 i = 0; i < 8; ++i)
    000019DD 04               [ 4] 4974 	inc	b
                                   4975 ;C:\MSX\MSXgl-1.4.1\engine/src/print.c:1208: }
    000019DE C3rC2r19         [10] 4976 	jp	00103$
                                   4977 ;C:\MSX\MSXgl-1.4.1\engine/src/print.c:1213: void Print_DrawHex8(u8 value)
                                   4978 ;	---------------------------------
                                   4979 ; Function Print_DrawHex8
                                   4980 ; ---------------------------------
    000019E1                       4981 _Print_DrawHex8::
    000019E1 5F               [ 4] 4982 	ld	e, a
                                   4983 ;C:\MSX\MSXgl-1.4.1\engine/src/print.c:1215: Print_DrawChar(g_HexChar[(value >> 4) & 0x000F]);
    000019E2 01r32r00         [10] 4984 	ld	bc, #_g_HexChar+0
    000019E5 7B               [ 4] 4985 	ld	a, e
    000019E6 07               [ 4] 4986 	rlca
    000019E7 07               [ 4] 4987 	rlca
    000019E8 07               [ 4] 4988 	rlca
    000019E9 07               [ 4] 4989 	rlca
                                   4990 ;	spillPairReg hl
                                   4991 ;	spillPairReg hl
                                   4992 ;	spillPairReg hl
                                   4993 ;	spillPairReg hl
    000019EA E6 0F            [ 7] 4994 	and	a, #0xf
    000019EC 6F               [ 4] 4995 	ld	l, a
                                   4996 ;	spillPairReg hl
                                   4997 ;	spillPairReg hl
    000019ED 26 00            [ 7] 4998 	ld	h, #0x00
                                   4999 ;	spillPairReg hl
                                   5000 ;	spillPairReg hl
    000019EF 09               [11] 5001 	add	hl, bc
    000019F0 56               [ 7] 5002 	ld	d, (hl)
    000019F1 C5               [11] 5003 	push	bc
    000019F2 D5               [11] 5004 	push	de
    000019F3 7A               [ 4] 5005 	ld	a, d
    000019F4 CDrDCr18         [17] 5006 	call	_Print_DrawChar
    000019F7 D1               [10] 5007 	pop	de
    000019F8 C1               [10] 5008 	pop	bc
                                   5009 ;C:\MSX\MSXgl-1.4.1\engine/src/print.c:1216: Print_DrawChar(g_HexChar[value & 0x000F]);
    000019F9 16 00            [ 7] 5010 	ld	d, #0x00
    000019FB 7B               [ 4] 5011 	ld	a, e
    000019FC E6 0F            [ 7] 5012 	and	a, #0x0f
    000019FE 6F               [ 4] 5013 	ld	l, a
                                   5014 ;	spillPairReg hl
                                   5015 ;	spillPairReg hl
    000019FF 26 00            [ 7] 5016 	ld	h, #0x00
                                   5017 ;	spillPairReg hl
                                   5018 ;	spillPairReg hl
    00001A01 09               [11] 5019 	add	hl, bc
    00001A02 4E               [ 7] 5020 	ld	c, (hl)
    00001A03 79               [ 4] 5021 	ld	a, c
                                   5022 ;C:\MSX\MSXgl-1.4.1\engine/src/print.c:1220: }
    00001A04 C3rDCr18         [10] 5023 	jp	_Print_DrawChar
                                   5024 ;C:\MSX\MSXgl-1.4.1\engine/src/print.c:1225: void Print_DrawHex16(u16 value)
                                   5025 ;	---------------------------------
                                   5026 ; Function Print_DrawHex16
                                   5027 ; ---------------------------------
    00001A07                       5028 _Print_DrawHex16::
                                   5029 ;C:\MSX\MSXgl-1.4.1\engine/src/print.c:1227: Print_DrawHex8(value >> 8);
    00001A07 4C               [ 4] 5030 	ld	c, h
    00001A08 E5               [11] 5031 	push	hl
    00001A09 79               [ 4] 5032 	ld	a, c
    00001A0A CDrE1r19         [17] 5033 	call	_Print_DrawHex8
    00001A0D E1               [10] 5034 	pop	hl
                                   5035 ;C:\MSX\MSXgl-1.4.1\engine/src/print.c:1228: Print_DrawHex8((u8)value);
    00001A0E 7D               [ 4] 5036 	ld	a, l
                                   5037 ;C:\MSX\MSXgl-1.4.1\engine/src/print.c:1229: }
    00001A0F C3rE1r19         [10] 5038 	jp	_Print_DrawHex8
                                   5039 ;C:\MSX\MSXgl-1.4.1\engine/src/print.c:1235: void Print_DrawHex32(u32 value)
                                   5040 ;	---------------------------------
                                   5041 ; Function Print_DrawHex32
                                   5042 ; ---------------------------------
    00001A12                       5043 _Print_DrawHex32::
                                   5044 ;C:\MSX\MSXgl-1.4.1\engine/src/print.c:1237: Print_DrawHex16(value >> 16);
                                   5045 ;	spillPairReg hl
                                   5046 ;	spillPairReg hl
                                   5047 ;	spillPairReg hl
                                   5048 ;	spillPairReg hl
    00001A12 E5               [11] 5049 	push	hl
    00001A13 D5               [11] 5050 	push	de
    00001A14 CDr07r1A         [17] 5051 	call	_Print_DrawHex16
    00001A17 D1               [10] 5052 	pop	de
    00001A18 C1               [10] 5053 	pop	bc
                                   5054 ;C:\MSX\MSXgl-1.4.1\engine/src/print.c:1238: Print_DrawHex16((u16)value);
    00001A19 EB               [ 4] 5055 	ex	de, hl
                                   5056 ;C:\MSX\MSXgl-1.4.1\engine/src/print.c:1239: }
    00001A1A C3r07r1A         [10] 5057 	jp	_Print_DrawHex16
                                   5058 ;C:\MSX\MSXgl-1.4.1\engine/src/print.c:1246: void Print_DrawInt(i32 value)
                                   5059 ;	---------------------------------
                                   5060 ; Function Print_DrawInt
                                   5061 ; ---------------------------------
    00001A1D                       5062 _Print_DrawInt::
    00001A1D DD E5            [15] 5063 	push	ix
    00001A1F DD 21 00 00      [14] 5064 	ld	ix,#0
    00001A23 DD 39            [15] 5065 	add	ix,sp
    00001A25 FD 21 F4 FF      [14] 5066 	ld	iy, #-12
    00001A29 FD 39            [15] 5067 	add	iy, sp
    00001A2B FD F9            [10] 5068 	ld	sp, iy
    00001A2D DD 73 FC         [19] 5069 	ld	-4 (ix), e
    00001A30 DD 72 FD         [19] 5070 	ld	-3 (ix), d
    00001A33 DD 75 FE         [19] 5071 	ld	-2 (ix), l
    00001A36 DD 74 FF         [19] 5072 	ld	-1 (ix), h
                                   5073 ;C:\MSX\MSXgl-1.4.1\engine/src/print.c:1253: if (value < 0)
    00001A39 DD CB FF 7E      [20] 5074 	bit	7, -1 (ix)
    00001A3D 28 23            [12] 5075 	jr	Z, 00102$
                                   5076 ;C:\MSX\MSXgl-1.4.1\engine/src/print.c:1255: Print_DrawChar('-');
    00001A3F 3E 2D            [ 7] 5077 	ld	a, #0x2d
    00001A41 CDrDCr18         [17] 5078 	call	_Print_DrawChar
                                   5079 ;C:\MSX\MSXgl-1.4.1\engine/src/print.c:1256: value = -value;
    00001A44 AF               [ 4] 5080 	xor	a, a
    00001A45 DD 96 FC         [19] 5081 	sub	a, -4 (ix)
    00001A48 DD 77 FC         [19] 5082 	ld	-4 (ix), a
    00001A4B 3E 00            [ 7] 5083 	ld	a, #0x00
    00001A4D DD 9E FD         [19] 5084 	sbc	a, -3 (ix)
    00001A50 DD 77 FD         [19] 5085 	ld	-3 (ix), a
    00001A53 3E 00            [ 7] 5086 	ld	a, #0x00
    00001A55 DD 9E FE         [19] 5087 	sbc	a, -2 (ix)
    00001A58 DD 77 FE         [19] 5088 	ld	-2 (ix), a
    00001A5B 9F               [ 4] 5089 	sbc	a, a
    00001A5C DD 96 FF         [19] 5090 	sub	a, -1 (ix)
    00001A5F DD 77 FF         [19] 5091 	ld	-1 (ix), a
    00001A62                       5092 00102$:
                                   5093 ;C:\MSX\MSXgl-1.4.1\engine/src/print.c:1260: c8* ptr = str;
    00001A62 21 00 00         [10] 5094 	ld	hl, #0
    00001A65 39               [11] 5095 	add	hl, sp
    00001A66 4D               [ 4] 5096 	ld	c, l
    00001A67 44               [ 4] 5097 	ld	b, h
                                   5098 ;C:\MSX\MSXgl-1.4.1\engine/src/print.c:1261: *ptr = 0;
    00001A68 AF               [ 4] 5099 	xor	a, a
    00001A69 02               [ 7] 5100 	ld	(bc), a
                                   5101 ;C:\MSX\MSXgl-1.4.1\engine/src/print.c:1262: while (value >= 10)
    00001A6A                       5102 00103$:
                                   5103 ;C:\MSX\MSXgl-1.4.1\engine/src/print.c:1264: *++ptr = '0' + (value % 10);
    00001A6A 69               [ 4] 5104 	ld	l, c
                                   5105 ;	spillPairReg hl
                                   5106 ;	spillPairReg hl
    00001A6B 60               [ 4] 5107 	ld	h, b
                                   5108 ;	spillPairReg hl
                                   5109 ;	spillPairReg hl
    00001A6C 23               [ 6] 5110 	inc	hl
                                   5111 ;C:\MSX\MSXgl-1.4.1\engine/src/print.c:1262: while (value >= 10)
    00001A6D DD 7E FC         [19] 5112 	ld	a, -4 (ix)
    00001A70 D6 0A            [ 7] 5113 	sub	a, #0x0a
    00001A72 DD 7E FD         [19] 5114 	ld	a, -3 (ix)
    00001A75 DE 00            [ 7] 5115 	sbc	a, #0x00
    00001A77 DD 7E FE         [19] 5116 	ld	a, -2 (ix)
    00001A7A DE 00            [ 7] 5117 	sbc	a, #0x00
    00001A7C DD 7E FF         [19] 5118 	ld	a, -1 (ix)
    00001A7F 17               [ 4] 5119 	rla
    00001A80 3F               [ 4] 5120 	ccf
    00001A81 1F               [ 4] 5121 	rra
    00001A82 DE 80            [ 7] 5122 	sbc	a, #0x80
    00001A84 38 4D            [12] 5123 	jr	C, 00105$
                                   5124 ;C:\MSX\MSXgl-1.4.1\engine/src/print.c:1264: *++ptr = '0' + (value % 10);
    00001A86 4D               [ 4] 5125 	ld	c, l
    00001A87 44               [ 4] 5126 	ld	b, h
    00001A88 E5               [11] 5127 	push	hl
    00001A89 C5               [11] 5128 	push	bc
    00001A8A 11 00 00         [10] 5129 	ld	de, #0x0000
    00001A8D D5               [11] 5130 	push	de
    00001A8E 1E 0A            [ 7] 5131 	ld	e, #0x0a
    00001A90 D5               [11] 5132 	push	de
    00001A91 DD 5E FC         [19] 5133 	ld	e, -4 (ix)
    00001A94 DD 56 FD         [19] 5134 	ld	d, -3 (ix)
    00001A97 DD 6E FE         [19] 5135 	ld	l, -2 (ix)
                                   5136 ;	spillPairReg hl
                                   5137 ;	spillPairReg hl
    00001A9A DD 66 FF         [19] 5138 	ld	h, -1 (ix)
                                   5139 ;	spillPairReg hl
                                   5140 ;	spillPairReg hl
    00001A9D CDr00r00         [17] 5141 	call	__modslong
    00001AA0 F1               [10] 5142 	pop	af
    00001AA1 E3               [19] 5143 	ex	(sp),hl
    00001AA2 FD E1            [14] 5144 	pop	iy
    00001AA4 C1               [10] 5145 	pop	bc
    00001AA5 E1               [10] 5146 	pop	hl
    00001AA6 7B               [ 4] 5147 	ld	a, e
    00001AA7 C6 30            [ 7] 5148 	add	a, #0x30
    00001AA9 77               [ 7] 5149 	ld	(hl), a
                                   5150 ;C:\MSX\MSXgl-1.4.1\engine/src/print.c:1265: value /= 10;
    00001AAA C5               [11] 5151 	push	bc
    00001AAB 21 00 00         [10] 5152 	ld	hl, #0x0000
    00001AAE E5               [11] 5153 	push	hl
    00001AAF 2E 0A            [ 7] 5154 	ld	l, #0x0a
    00001AB1 E5               [11] 5155 	push	hl
    00001AB2 DD 5E FC         [19] 5156 	ld	e, -4 (ix)
    00001AB5 DD 56 FD         [19] 5157 	ld	d, -3 (ix)
    00001AB8 DD 6E FE         [19] 5158 	ld	l, -2 (ix)
                                   5159 ;	spillPairReg hl
                                   5160 ;	spillPairReg hl
    00001ABB DD 66 FF         [19] 5161 	ld	h, -1 (ix)
                                   5162 ;	spillPairReg hl
                                   5163 ;	spillPairReg hl
    00001ABE CDr00r00         [17] 5164 	call	__divslong
    00001AC1 F1               [10] 5165 	pop	af
    00001AC2 F1               [10] 5166 	pop	af
    00001AC3 C1               [10] 5167 	pop	bc
    00001AC4 DD 73 FC         [19] 5168 	ld	-4 (ix), e
    00001AC7 DD 72 FD         [19] 5169 	ld	-3 (ix), d
    00001ACA DD 75 FE         [19] 5170 	ld	-2 (ix), l
    00001ACD DD 74 FF         [19] 5171 	ld	-1 (ix), h
    00001AD0 C3r6Ar1A         [10] 5172 	jp	00103$
    00001AD3                       5173 00105$:
                                   5174 ;C:\MSX\MSXgl-1.4.1\engine/src/print.c:1267: *++ptr = '0' + value;
    00001AD3 DD 7E FC         [19] 5175 	ld	a, -4 (ix)
    00001AD6 C6 30            [ 7] 5176 	add	a, #0x30
    00001AD8 77               [ 7] 5177 	ld	(hl), a
                                   5178 ;C:\MSX\MSXgl-1.4.1\engine/src/print.c:1268: while (*ptr != 0)
    00001AD9                       5179 00106$:
    00001AD9 7E               [ 7] 5180 	ld	a, (hl)
    00001ADA B7               [ 4] 5181 	or	a, a
    00001ADB 28 0B            [12] 5182 	jr	Z, 00109$
                                   5183 ;C:\MSX\MSXgl-1.4.1\engine/src/print.c:1269: Print_DrawChar(*ptr--);	
    00001ADD 2B               [ 6] 5184 	dec	hl
    00001ADE 4F               [ 4] 5185 	ld	c, a
    00001ADF E5               [11] 5186 	push	hl
    00001AE0 79               [ 4] 5187 	ld	a, c
    00001AE1 CDrDCr18         [17] 5188 	call	_Print_DrawChar
    00001AE4 E1               [10] 5189 	pop	hl
    00001AE5 C3rD9r1A         [10] 5190 	jp	00106$
    00001AE8                       5191 00109$:
                                   5192 ;C:\MSX\MSXgl-1.4.1\engine/src/print.c:1270: }
    00001AE8 DD F9            [10] 5193 	ld	sp, ix
    00001AEA DD E1            [14] 5194 	pop	ix
    00001AEC C9               [10] 5195 	ret
                                   5196 ;C:\MSX\MSXgl-1.4.1\engine/src/print.c:1279: void Print_DrawFormat(const c8* format, ...)
                                   5197 ;	---------------------------------
                                   5198 ; Function Print_DrawFormat
                                   5199 ; ---------------------------------
    00001AED                       5200 _Print_DrawFormat::
    00001AED DD E5            [15] 5201 	push	ix
    00001AEF DD 21 00 00      [14] 5202 	ld	ix,#0
    00001AF3 DD 39            [15] 5203 	add	ix,sp
    00001AF5 21 EC FF         [10] 5204 	ld	hl, #-20
    00001AF8 39               [11] 5205 	add	hl, sp
    00001AF9 F9               [ 6] 5206 	ld	sp, hl
                                   5207 ;C:\MSX\MSXgl-1.4.1\engine/src/print.c:1284: va_start(args, format);
    00001AFA 21 1A 00         [10] 5208 	ld	hl, #26
    00001AFD 39               [11] 5209 	add	hl, sp
    00001AFE DD 75 F8         [19] 5210 	ld	-8 (ix), l
    00001B01 DD 74 F9         [19] 5211 	ld	-7 (ix), h
                                   5212 ;C:\MSX\MSXgl-1.4.1\engine/src/print.c:1286: const c8* ptr = format;
    00001B04 DD 7E 04         [19] 5213 	ld	a, 4 (ix)
    00001B07 DD 77 FC         [19] 5214 	ld	-4 (ix), a
    00001B0A DD 7E 05         [19] 5215 	ld	a, 5 (ix)
    00001B0D DD 77 FD         [19] 5216 	ld	-3 (ix), a
                                   5217 ;C:\MSX\MSXgl-1.4.1\engine/src/print.c:1287: while (*ptr != 0)
    00001B10                       5218 00194$:
    00001B10 DD 6E FC         [19] 5219 	ld	l, -4 (ix)
    00001B13 DD 66 FD         [19] 5220 	ld	h, -3 (ix)
    00001B16 7E               [ 7] 5221 	ld	a, (hl)
    00001B17 DD 77 FF         [19] 5222 	ld	-1 (ix), a
    00001B1A B7               [ 4] 5223 	or	a, a
    00001B1B CArA6r21         [10] 5224 	jp	Z, 00200$
                                   5225 ;C:\MSX\MSXgl-1.4.1\engine/src/print.c:1289: if (*ptr == '%')
    00001B1E DD 7E FF         [19] 5226 	ld	a, -1 (ix)
    00001B21 D6 25            [ 7] 5227 	sub	a, #0x25
    00001B23 C2r27r21         [10] 5228 	jp	NZ,00192$
                                   5229 ;C:\MSX\MSXgl-1.4.1\engine/src/print.c:1291: ptr++;
    00001B26 DD 4E FC         [19] 5230 	ld	c, -4 (ix)
    00001B29 DD 46 FD         [19] 5231 	ld	b, -3 (ix)
    00001B2C 03               [ 6] 5232 	inc	bc
                                   5233 ;C:\MSX\MSXgl-1.4.1\engine/src/print.c:1294: u8 len = 0;
    00001B2D DD 36 FF 00      [19] 5234 	ld	-1 (ix), #0x00
                                   5235 ;C:\MSX\MSXgl-1.4.1\engine/src/print.c:1295: if ((*ptr >= '0') && (*ptr <= '9'))
    00001B31 0A               [ 7] 5236 	ld	a, (bc)
    00001B32 5F               [ 4] 5237 	ld	e, a
    00001B33 D6 30            [ 7] 5238 	sub	a, #0x30
    00001B35 38 0C            [12] 5239 	jr	C, 00208$
    00001B37 3E 39            [ 7] 5240 	ld	a, #0x39
    00001B39 93               [ 4] 5241 	sub	a, e
    00001B3A 38 07            [12] 5242 	jr	C, 00208$
                                   5243 ;C:\MSX\MSXgl-1.4.1\engine/src/print.c:1297: len = *ptr - '0';
    00001B3C 7B               [ 4] 5244 	ld	a, e
    00001B3D C6 D0            [ 7] 5245 	add	a, #0xd0
    00001B3F DD 77 FF         [19] 5246 	ld	-1 (ix), a
                                   5247 ;C:\MSX\MSXgl-1.4.1\engine/src/print.c:1298: ptr++;
    00001B42 03               [ 6] 5248 	inc	bc
                                   5249 ;C:\MSX\MSXgl-1.4.1\engine/src/print.c:1300: while ((*ptr >= '0') && (*ptr <= '9'))
    00001B43                       5250 00208$:
    00001B43 DD 71 F6         [19] 5251 	ld	-10 (ix), c
    00001B46 DD 70 F7         [19] 5252 	ld	-9 (ix), b
    00001B49                       5253 00105$:
    00001B49 DD 6E F6         [19] 5254 	ld	l, -10 (ix)
    00001B4C DD 66 F7         [19] 5255 	ld	h, -9 (ix)
    00001B4F 7E               [ 7] 5256 	ld	a, (hl)
    00001B50 DD 77 FE         [19] 5257 	ld	-2 (ix), a
    00001B53 D6 30            [ 7] 5258 	sub	a, #0x30
    00001B55 38 23            [12] 5259 	jr	C, 00244$
    00001B57 3E 39            [ 7] 5260 	ld	a, #0x39
    00001B59 DD 96 FE         [19] 5261 	sub	a, -2 (ix)
    00001B5C 38 1C            [12] 5262 	jr	C, 00244$
                                   5263 ;C:\MSX\MSXgl-1.4.1\engine/src/print.c:1302: len *= 10;
    00001B5E DD 6E FF         [19] 5264 	ld	l, -1 (ix)
                                   5265 ;	spillPairReg hl
                                   5266 ;	spillPairReg hl
    00001B61 4D               [ 4] 5267 	ld	c, l
    00001B62 29               [11] 5268 	add	hl, hl
    00001B63 29               [11] 5269 	add	hl, hl
    00001B64 09               [11] 5270 	add	hl, bc
    00001B65 29               [11] 5271 	add	hl, hl
                                   5272 ;C:\MSX\MSXgl-1.4.1\engine/src/print.c:1303: len += *ptr - '0';
    00001B66 DD 7E FE         [19] 5273 	ld	a, -2 (ix)
    00001B69 C6 D0            [ 7] 5274 	add	a, #0xd0
    00001B6B 85               [ 4] 5275 	add	a, l
    00001B6C DD 77 FF         [19] 5276 	ld	-1 (ix), a
                                   5277 ;C:\MSX\MSXgl-1.4.1\engine/src/print.c:1304: ptr++;
    00001B6F DD 34 F6         [23] 5278 	inc	-10 (ix)
    00001B72 20 D5            [12] 5279 	jr	NZ, 00105$
    00001B74 DD 34 F7         [23] 5280 	inc	-9 (ix)
    00001B77 C3r49r1B         [10] 5281 	jp	00105$
    00001B7A                       5282 00244$:
    00001B7A DD 7E F6         [19] 5283 	ld	a, -10 (ix)
    00001B7D DD 77 FC         [19] 5284 	ld	-4 (ix), a
    00001B80 DD 7E F7         [19] 5285 	ld	a, -9 (ix)
    00001B83 DD 77 FD         [19] 5286 	ld	-3 (ix), a
                                   5287 ;C:\MSX\MSXgl-1.4.1\engine/src/print.c:1308: if ((*ptr == 'i') || (*ptr == 'd'))
    00001B86 DD 7E FE         [19] 5288 	ld	a, -2 (ix)
    00001B89 D6 69            [ 7] 5289 	sub	a, #0x69
    00001B8B 28 07            [12] 5290 	jr	Z, 00178$
    00001B8D DD 7E FE         [19] 5291 	ld	a, -2 (ix)
    00001B90 D6 64            [ 7] 5292 	sub	a, #0x64
    00001B92 20 61            [12] 5293 	jr	NZ, 00179$
    00001B94                       5294 00178$:
                                   5295 ;C:\MSX\MSXgl-1.4.1\engine/src/print.c:1310: i16 val = (i16)va_arg(args, i16);
    00001B94 DD 7E F8         [19] 5296 	ld	a, -8 (ix)
    00001B97 C6 02            [ 7] 5297 	add	a, #0x02
    00001B99 DD 77 FA         [19] 5298 	ld	-6 (ix), a
    00001B9C DD 7E F9         [19] 5299 	ld	a, -7 (ix)
    00001B9F CE 00            [ 7] 5300 	adc	a, #0x00
    00001BA1 DD 77 FB         [19] 5301 	ld	-5 (ix), a
    00001BA4 DD 7E FA         [19] 5302 	ld	a, -6 (ix)
    00001BA7 DD 77 F8         [19] 5303 	ld	-8 (ix), a
    00001BAA DD 7E FB         [19] 5304 	ld	a, -5 (ix)
    00001BAD DD 77 F9         [19] 5305 	ld	-7 (ix), a
    00001BB0 DD 7E FA         [19] 5306 	ld	a, -6 (ix)
    00001BB3 C6 FE            [ 7] 5307 	add	a, #0xfe
    00001BB5 DD 77 FE         [19] 5308 	ld	-2 (ix), a
    00001BB8 DD 7E FB         [19] 5309 	ld	a, -5 (ix)
    00001BBB CE FF            [ 7] 5310 	adc	a, #0xff
    00001BBD DD 77 FF         [19] 5311 	ld	-1 (ix), a
    00001BC0 DD 6E FE         [19] 5312 	ld	l, -2 (ix)
    00001BC3 DD 66 FF         [19] 5313 	ld	h, -1 (ix)
    00001BC6 7E               [ 7] 5314 	ld	a, (hl)
    00001BC7 DD 77 FE         [19] 5315 	ld	-2 (ix), a
    00001BCA 23               [ 6] 5316 	inc	hl
    00001BCB 7E               [ 7] 5317 	ld	a, (hl)
    00001BCC DD 77 FF         [19] 5318 	ld	-1 (ix), a
                                   5319 ;C:\MSX\MSXgl-1.4.1\engine/src/print.c:1311: Print_DrawInt(val);
    00001BCF DD 7E FE         [19] 5320 	ld	a, -2 (ix)
    00001BD2 DD 77 F4         [19] 5321 	ld	-12 (ix), a
    00001BD5 DD 7E FF         [19] 5322 	ld	a, -1 (ix)
    00001BD8 DD 77 F5         [19] 5323 	ld	-11 (ix), a
    00001BDB 07               [ 4] 5324 	rlca
    00001BDC 9F               [ 4] 5325 	sbc	a, a
    00001BDD DD 77 F6         [19] 5326 	ld	-10 (ix), a
    00001BE0 DD 77 F7         [19] 5327 	ld	-9 (ix), a
    00001BE3 DD 5E F4         [19] 5328 	ld	e, -12 (ix)
    00001BE6 DD 56 F5         [19] 5329 	ld	d, -11 (ix)
    00001BE9 DD 6E F6         [19] 5330 	ld	l, -10 (ix)
                                   5331 ;	spillPairReg hl
                                   5332 ;	spillPairReg hl
    00001BEC DD 66 F7         [19] 5333 	ld	h, -9 (ix)
                                   5334 ;	spillPairReg hl
                                   5335 ;	spillPairReg hl
    00001BEF CDr1Dr1A         [17] 5336 	call	_Print_DrawInt
    00001BF2 C3r9Ar21         [10] 5337 	jp	00193$
    00001BF5                       5338 00179$:
                                   5339 ;C:\MSX\MSXgl-1.4.1\engine/src/print.c:1313: else if (*ptr == 'u')
    00001BF5 DD 7E FE         [19] 5340 	ld	a, -2 (ix)
    00001BF8 D6 75            [ 7] 5341 	sub	a, #0x75
    00001BFA 20 60            [12] 5342 	jr	NZ, 00176$
                                   5343 ;C:\MSX\MSXgl-1.4.1\engine/src/print.c:1315: u16 val = (u16)va_arg(args, u16);
    00001BFC DD 7E F8         [19] 5344 	ld	a, -8 (ix)
    00001BFF C6 02            [ 7] 5345 	add	a, #0x02
    00001C01 DD 77 FA         [19] 5346 	ld	-6 (ix), a
    00001C04 DD 7E F9         [19] 5347 	ld	a, -7 (ix)
    00001C07 CE 00            [ 7] 5348 	adc	a, #0x00
    00001C09 DD 77 FB         [19] 5349 	ld	-5 (ix), a
    00001C0C DD 7E FA         [19] 5350 	ld	a, -6 (ix)
    00001C0F DD 77 F8         [19] 5351 	ld	-8 (ix), a
    00001C12 DD 7E FB         [19] 5352 	ld	a, -5 (ix)
    00001C15 DD 77 F9         [19] 5353 	ld	-7 (ix), a
    00001C18 DD 7E FA         [19] 5354 	ld	a, -6 (ix)
    00001C1B C6 FE            [ 7] 5355 	add	a, #0xfe
    00001C1D DD 77 FE         [19] 5356 	ld	-2 (ix), a
    00001C20 DD 7E FB         [19] 5357 	ld	a, -5 (ix)
    00001C23 CE FF            [ 7] 5358 	adc	a, #0xff
    00001C25 DD 77 FF         [19] 5359 	ld	-1 (ix), a
    00001C28 DD 6E FE         [19] 5360 	ld	l, -2 (ix)
    00001C2B DD 66 FF         [19] 5361 	ld	h, -1 (ix)
    00001C2E 7E               [ 7] 5362 	ld	a, (hl)
    00001C2F DD 77 FE         [19] 5363 	ld	-2 (ix), a
    00001C32 23               [ 6] 5364 	inc	hl
    00001C33 7E               [ 7] 5365 	ld	a, (hl)
    00001C34 DD 77 FF         [19] 5366 	ld	-1 (ix), a
                                   5367 ;C:\MSX\MSXgl-1.4.1\engine/src/print.c:1316: Print_DrawInt(val);
    00001C37 DD 7E FE         [19] 5368 	ld	a, -2 (ix)
    00001C3A DD 77 F4         [19] 5369 	ld	-12 (ix), a
    00001C3D DD 7E FF         [19] 5370 	ld	a, -1 (ix)
    00001C40 DD 77 F5         [19] 5371 	ld	-11 (ix), a
    00001C43 AF               [ 4] 5372 	xor	a, a
    00001C44 DD 77 F6         [19] 5373 	ld	-10 (ix), a
    00001C47 DD 77 F7         [19] 5374 	ld	-9 (ix), a
    00001C4A DD 5E F4         [19] 5375 	ld	e, -12 (ix)
    00001C4D DD 56 F5         [19] 5376 	ld	d, -11 (ix)
    00001C50 DD 6E F6         [19] 5377 	ld	l, -10 (ix)
                                   5378 ;	spillPairReg hl
                                   5379 ;	spillPairReg hl
    00001C53 DD 66 F7         [19] 5380 	ld	h, -9 (ix)
                                   5381 ;	spillPairReg hl
                                   5382 ;	spillPairReg hl
    00001C56 CDr1Dr1A         [17] 5383 	call	_Print_DrawInt
    00001C59 C3r9Ar21         [10] 5384 	jp	00193$
    00001C5C                       5385 00176$:
                                   5386 ;C:\MSX\MSXgl-1.4.1\engine/src/print.c:1318: else if (*ptr == 'x')
    00001C5C DD 7E FE         [19] 5387 	ld	a, -2 (ix)
    00001C5F D6 78            [ 7] 5388 	sub	a, #0x78
    00001C61 C2rAEr1D         [10] 5389 	jp	NZ,00173$
                                   5390 ;C:\MSX\MSXgl-1.4.1\engine/src/print.c:1320: if (len == 0)
    00001C64 DD 7E FF         [19] 5391 	ld	a, -1 (ix)
    00001C67 B7               [ 4] 5392 	or	a, a
    00001C68 20 04            [12] 5393 	jr	NZ, 00109$
                                   5394 ;C:\MSX\MSXgl-1.4.1\engine/src/print.c:1321: len = 4;
    00001C6A DD 36 FF 04      [19] 5395 	ld	-1 (ix), #0x04
    00001C6E                       5396 00109$:
                                   5397 ;C:\MSX\MSXgl-1.4.1\engine/src/print.c:1322: u16 val = (u16)va_arg(args, u16);
    00001C6E DD 7E F8         [19] 5398 	ld	a, -8 (ix)
    00001C71 C6 02            [ 7] 5399 	add	a, #0x02
    00001C73 DD 77 F6         [19] 5400 	ld	-10 (ix), a
    00001C76 DD 7E F9         [19] 5401 	ld	a, -7 (ix)
    00001C79 CE 00            [ 7] 5402 	adc	a, #0x00
    00001C7B DD 77 F7         [19] 5403 	ld	-9 (ix), a
    00001C7E DD 7E F6         [19] 5404 	ld	a, -10 (ix)
    00001C81 DD 77 F8         [19] 5405 	ld	-8 (ix), a
    00001C84 DD 7E F7         [19] 5406 	ld	a, -9 (ix)
    00001C87 DD 77 F9         [19] 5407 	ld	-7 (ix), a
    00001C8A DD 7E F6         [19] 5408 	ld	a, -10 (ix)
    00001C8D C6 FE            [ 7] 5409 	add	a, #0xfe
    00001C8F DD 77 FA         [19] 5410 	ld	-6 (ix), a
    00001C92 DD 7E F7         [19] 5411 	ld	a, -9 (ix)
    00001C95 CE FF            [ 7] 5412 	adc	a, #0xff
    00001C97 DD 77 FB         [19] 5413 	ld	-5 (ix), a
    00001C9A DD 6E FA         [19] 5414 	ld	l, -6 (ix)
    00001C9D DD 66 FB         [19] 5415 	ld	h, -5 (ix)
    00001CA0 7E               [ 7] 5416 	ld	a, (hl)
    00001CA1 DD 77 F4         [19] 5417 	ld	-12 (ix), a
    00001CA4 23               [ 6] 5418 	inc	hl
    00001CA5 7E               [ 7] 5419 	ld	a, (hl)
    00001CA6 DD 77 F5         [19] 5420 	ld	-11 (ix), a
                                   5421 ;C:\MSX\MSXgl-1.4.1\engine/src/print.c:1323: if (len > 3)
    00001CA9 3E 03            [ 7] 5422 	ld	a, #0x03
    00001CAB DD 96 FF         [19] 5423 	sub	a, -1 (ix)
    00001CAE 30 36            [12] 5424 	jr	NC, 00111$
                                   5425 ;C:\MSX\MSXgl-1.4.1\engine/src/print.c:1324: Print_DrawChar(g_HexChar[(val >> 12) & 0x000F]);
    00001CB0 DD 7E F5         [19] 5426 	ld	a, -11 (ix)
    00001CB3 07               [ 4] 5427 	rlca
    00001CB4 07               [ 4] 5428 	rlca
    00001CB5 07               [ 4] 5429 	rlca
    00001CB6 07               [ 4] 5430 	rlca
    00001CB7 E6 0F            [ 7] 5431 	and	a, #0x0f
    00001CB9 DD 77 FA         [19] 5432 	ld	-6 (ix), a
    00001CBC DD 36 FB 00      [19] 5433 	ld	-5 (ix), #0x00
    00001CC0 DD 7E FA         [19] 5434 	ld	a, -6 (ix)
    00001CC3 E6 0F            [ 7] 5435 	and	a, #0x0f
    00001CC5 DD 77 F6         [19] 5436 	ld	-10 (ix), a
    00001CC8 DD 36 F7 00      [19] 5437 	ld	-9 (ix), #0x00
    00001CCC 3Er32            [ 7] 5438 	ld	a, #<(_g_HexChar)
    00001CCE DD 86 F6         [19] 5439 	add	a, -10 (ix)
    00001CD1 DD 77 FA         [19] 5440 	ld	-6 (ix), a
    00001CD4 3Es00            [ 7] 5441 	ld	a, #>(_g_HexChar)
    00001CD6 DD 8E F7         [19] 5442 	adc	a, -9 (ix)
    00001CD9 DD 77 FB         [19] 5443 	ld	-5 (ix), a
    00001CDC DD 6E FA         [19] 5444 	ld	l, -6 (ix)
    00001CDF DD 66 FB         [19] 5445 	ld	h, -5 (ix)
    00001CE2 7E               [ 7] 5446 	ld	a, (hl)
    00001CE3 CDrDCr18         [17] 5447 	call	_Print_DrawChar
    00001CE6                       5448 00111$:
                                   5449 ;C:\MSX\MSXgl-1.4.1\engine/src/print.c:1325: if (len > 2)
    00001CE6 3E 02            [ 7] 5450 	ld	a, #0x02
    00001CE8 DD 96 FF         [19] 5451 	sub	a, -1 (ix)
    00001CEB 30 33            [12] 5452 	jr	NC, 00113$
                                   5453 ;C:\MSX\MSXgl-1.4.1\engine/src/print.c:1326: Print_DrawChar(g_HexChar[(val >> 8) & 0x000F]);
    00001CED DD 7E F5         [19] 5454 	ld	a, -11 (ix)
    00001CF0 DD 77 FE         [19] 5455 	ld	-2 (ix), a
    00001CF3 DD 77 FA         [19] 5456 	ld	-6 (ix), a
    00001CF6 DD 36 FB 00      [19] 5457 	ld	-5 (ix), #0x00
    00001CFA DD 7E FA         [19] 5458 	ld	a, -6 (ix)
    00001CFD E6 0F            [ 7] 5459 	and	a, #0x0f
    00001CFF DD 77 F6         [19] 5460 	ld	-10 (ix), a
    00001D02 DD 36 F7 00      [19] 5461 	ld	-9 (ix), #0x00
    00001D06 3Er32            [ 7] 5462 	ld	a, #<(_g_HexChar)
    00001D08 DD 86 F6         [19] 5463 	add	a, -10 (ix)
    00001D0B DD 77 FA         [19] 5464 	ld	-6 (ix), a
    00001D0E 3Es00            [ 7] 5465 	ld	a, #>(_g_HexChar)
    00001D10 DD 8E F7         [19] 5466 	adc	a, -9 (ix)
    00001D13 DD 77 FB         [19] 5467 	ld	-5 (ix), a
    00001D16 DD 6E FA         [19] 5468 	ld	l, -6 (ix)
    00001D19 DD 66 FB         [19] 5469 	ld	h, -5 (ix)
    00001D1C 7E               [ 7] 5470 	ld	a, (hl)
    00001D1D CDrDCr18         [17] 5471 	call	_Print_DrawChar
    00001D20                       5472 00113$:
                                   5473 ;C:\MSX\MSXgl-1.4.1\engine/src/print.c:1327: if (len > 1)
    00001D20 3E 01            [ 7] 5474 	ld	a, #0x01
    00001D22 DD 96 FF         [19] 5475 	sub	a, -1 (ix)
    00001D25 30 52            [12] 5476 	jr	NC, 00115$
                                   5477 ;C:\MSX\MSXgl-1.4.1\engine/src/print.c:1328: Print_DrawChar(g_HexChar[(val >> 4) & 0x000F]);
    00001D27 DD 7E F4         [19] 5478 	ld	a, -12 (ix)
    00001D2A DD 77 FE         [19] 5479 	ld	-2 (ix), a
    00001D2D DD 7E F5         [19] 5480 	ld	a, -11 (ix)
    00001D30 DD 77 FF         [19] 5481 	ld	-1 (ix), a
    00001D33 DD CB FF 3E      [23] 5482 	srl	-1 (ix)
    00001D37 DD CB FE 1E      [23] 5483 	rr	-2 (ix)
    00001D3B DD CB FF 3E      [23] 5484 	srl	-1 (ix)
    00001D3F DD CB FE 1E      [23] 5485 	rr	-2 (ix)
    00001D43 DD CB FF 3E      [23] 5486 	srl	-1 (ix)
    00001D47 DD CB FE 1E      [23] 5487 	rr	-2 (ix)
    00001D4B DD CB FF 3E      [23] 5488 	srl	-1 (ix)
    00001D4F DD CB FE 1E      [23] 5489 	rr	-2 (ix)
    00001D53 DD 7E FE         [19] 5490 	ld	a, -2 (ix)
    00001D56 E6 0F            [ 7] 5491 	and	a, #0x0f
    00001D58 DD 77 FA         [19] 5492 	ld	-6 (ix), a
    00001D5B DD 36 FB 00      [19] 5493 	ld	-5 (ix), #0x00
    00001D5F 3Er32            [ 7] 5494 	ld	a, #<(_g_HexChar)
    00001D61 DD 86 FA         [19] 5495 	add	a, -6 (ix)
    00001D64 DD 77 FE         [19] 5496 	ld	-2 (ix), a
    00001D67 3Es00            [ 7] 5497 	ld	a, #>(_g_HexChar)
    00001D69 DD 8E FB         [19] 5498 	adc	a, -5 (ix)
    00001D6C DD 77 FF         [19] 5499 	ld	-1 (ix), a
    00001D6F DD 6E FE         [19] 5500 	ld	l, -2 (ix)
    00001D72 DD 66 FF         [19] 5501 	ld	h, -1 (ix)
    00001D75 7E               [ 7] 5502 	ld	a, (hl)
    00001D76 CDrDCr18         [17] 5503 	call	_Print_DrawChar
    00001D79                       5504 00115$:
                                   5505 ;C:\MSX\MSXgl-1.4.1\engine/src/print.c:1329: Print_DrawChar(g_HexChar[val & 0x000F]);
    00001D79 DD 7E F4         [19] 5506 	ld	a, -12 (ix)
    00001D7C DD 77 FE         [19] 5507 	ld	-2 (ix), a
    00001D7F DD 7E F5         [19] 5508 	ld	a, -11 (ix)
    00001D82 DD 77 FF         [19] 5509 	ld	-1 (ix), a
    00001D85 DD 7E FE         [19] 5510 	ld	a, -2 (ix)
    00001D88 E6 0F            [ 7] 5511 	and	a, #0x0f
    00001D8A DD 77 FA         [19] 5512 	ld	-6 (ix), a
    00001D8D DD 36 FB 00      [19] 5513 	ld	-5 (ix), #0x00
    00001D91 3Er32            [ 7] 5514 	ld	a, #<(_g_HexChar)
    00001D93 DD 86 FA         [19] 5515 	add	a, -6 (ix)
    00001D96 DD 77 FE         [19] 5516 	ld	-2 (ix), a
    00001D99 3Es00            [ 7] 5517 	ld	a, #>(_g_HexChar)
    00001D9B DD 8E FB         [19] 5518 	adc	a, -5 (ix)
    00001D9E DD 77 FF         [19] 5519 	ld	-1 (ix), a
    00001DA1 DD 6E FE         [19] 5520 	ld	l, -2 (ix)
    00001DA4 DD 66 FF         [19] 5521 	ld	h, -1 (ix)
    00001DA7 7E               [ 7] 5522 	ld	a, (hl)
    00001DA8 CDrDCr18         [17] 5523 	call	_Print_DrawChar
    00001DAB C3r9Ar21         [10] 5524 	jp	00193$
    00001DAE                       5525 00173$:
                                   5526 ;C:\MSX\MSXgl-1.4.1\engine/src/print.c:1331: else if (*ptr == 'b')
    00001DAE DD 7E FE         [19] 5527 	ld	a, -2 (ix)
    00001DB1 D6 62            [ 7] 5528 	sub	a, #0x62
    00001DB3 C2r4Fr1E         [10] 5529 	jp	NZ,00170$
                                   5530 ;C:\MSX\MSXgl-1.4.1\engine/src/print.c:1333: if (len == 0)
    00001DB6 DD 7E FF         [19] 5531 	ld	a, -1 (ix)
    00001DB9 B7               [ 4] 5532 	or	a, a
    00001DBA 20 04            [12] 5533 	jr	NZ, 00117$
                                   5534 ;C:\MSX\MSXgl-1.4.1\engine/src/print.c:1334: len = 16;
    00001DBC DD 36 FF 10      [19] 5535 	ld	-1 (ix), #0x10
    00001DC0                       5536 00117$:
                                   5537 ;C:\MSX\MSXgl-1.4.1\engine/src/print.c:1335: u16 val = (u16)va_arg(args, u16);
    00001DC0 DD 7E F8         [19] 5538 	ld	a, -8 (ix)
    00001DC3 C6 02            [ 7] 5539 	add	a, #0x02
    00001DC5 DD 77 F6         [19] 5540 	ld	-10 (ix), a
    00001DC8 DD 7E F9         [19] 5541 	ld	a, -7 (ix)
    00001DCB CE 00            [ 7] 5542 	adc	a, #0x00
    00001DCD DD 77 F7         [19] 5543 	ld	-9 (ix), a
    00001DD0 DD 7E F6         [19] 5544 	ld	a, -10 (ix)
    00001DD3 DD 77 F8         [19] 5545 	ld	-8 (ix), a
    00001DD6 DD 7E F7         [19] 5546 	ld	a, -9 (ix)
    00001DD9 DD 77 F9         [19] 5547 	ld	-7 (ix), a
    00001DDC DD 7E F6         [19] 5548 	ld	a, -10 (ix)
    00001DDF C6 FE            [ 7] 5549 	add	a, #0xfe
    00001DE1 DD 77 FA         [19] 5550 	ld	-6 (ix), a
    00001DE4 DD 7E F7         [19] 5551 	ld	a, -9 (ix)
    00001DE7 CE FF            [ 7] 5552 	adc	a, #0xff
    00001DE9 DD 77 FB         [19] 5553 	ld	-5 (ix), a
    00001DEC DD 6E FA         [19] 5554 	ld	l, -6 (ix)
    00001DEF DD 66 FB         [19] 5555 	ld	h, -5 (ix)
    00001DF2 7E               [ 7] 5556 	ld	a, (hl)
    00001DF3 DD 77 FA         [19] 5557 	ld	-6 (ix), a
    00001DF6 23               [ 6] 5558 	inc	hl
    00001DF7 7E               [ 7] 5559 	ld	a, (hl)
    00001DF8 DD 77 FB         [19] 5560 	ld	-5 (ix), a
                                   5561 ;C:\MSX\MSXgl-1.4.1\engine/src/print.c:1336: u16 bit = 1 << (len - 1);
    00001DFB DD 35 FF         [23] 5562 	dec	-1 (ix)
    00001DFE DD 46 FF         [19] 5563 	ld	b, -1 (ix)
    00001E01 DD 36 FE 01      [19] 5564 	ld	-2 (ix), #0x01
    00001E05 DD 36 FF 00      [19] 5565 	ld	-1 (ix), #0
    00001E09 04               [ 4] 5566 	inc	b
    00001E0A C3r15r1E         [10] 5567 	jp	00426$
    00001E0D                       5568 00425$:
    00001E0D DD CB FE 26      [23] 5569 	sla	-2 (ix)
    00001E11 DD CB FF 16      [23] 5570 	rl	-1 (ix)
    00001E15                       5571 00426$:
    00001E15 10 F6            [13] 5572 	djnz	00425$
                                   5573 ;C:\MSX\MSXgl-1.4.1\engine/src/print.c:1337: while (bit)
    00001E17                       5574 00121$:
    00001E17 DD 7E FF         [19] 5575 	ld	a, -1 (ix)
    00001E1A DD B6 FE         [19] 5576 	or	a, -2 (ix)
    00001E1D CAr9Ar21         [10] 5577 	jp	Z, 00193$
                                   5578 ;C:\MSX\MSXgl-1.4.1\engine/src/print.c:1339: if (val & bit)
    00001E20 DD 7E FA         [19] 5579 	ld	a, -6 (ix)
    00001E23 DD A6 FE         [19] 5580 	and	a, -2 (ix)
    00001E26 DD 77 F6         [19] 5581 	ld	-10 (ix), a
    00001E29 DD 7E FB         [19] 5582 	ld	a, -5 (ix)
    00001E2C DD A6 FF         [19] 5583 	and	a, -1 (ix)
    00001E2F DD 77 F7         [19] 5584 	ld	-9 (ix), a
    00001E32 DD B6 F6         [19] 5585 	or	a, -10 (ix)
    00001E35 28 08            [12] 5586 	jr	Z, 00119$
                                   5587 ;C:\MSX\MSXgl-1.4.1\engine/src/print.c:1340: Print_DrawChar('1');
    00001E37 3E 31            [ 7] 5588 	ld	a, #0x31
    00001E39 CDrDCr18         [17] 5589 	call	_Print_DrawChar
    00001E3C C3r44r1E         [10] 5590 	jp	00120$
    00001E3F                       5591 00119$:
                                   5592 ;C:\MSX\MSXgl-1.4.1\engine/src/print.c:1342: Print_DrawChar('0');
    00001E3F 3E 30            [ 7] 5593 	ld	a, #0x30
    00001E41 CDrDCr18         [17] 5594 	call	_Print_DrawChar
    00001E44                       5595 00120$:
                                   5596 ;C:\MSX\MSXgl-1.4.1\engine/src/print.c:1343: bit >>= 1;
    00001E44 DD CB FF 3E      [23] 5597 	srl	-1 (ix)
    00001E48 DD CB FE 1E      [23] 5598 	rr	-2 (ix)
    00001E4C C3r17r1E         [10] 5599 	jp	00121$
    00001E4F                       5600 00170$:
                                   5601 ;C:\MSX\MSXgl-1.4.1\engine/src/print.c:1347: else if ((*ptr == 'I') || (*ptr == 'D'))
    00001E4F DD 7E FE         [19] 5602 	ld	a, -2 (ix)
    00001E52 D6 49            [ 7] 5603 	sub	a, #0x49
    00001E54 28 07            [12] 5604 	jr	Z, 00165$
    00001E56 DD 7E FE         [19] 5605 	ld	a, -2 (ix)
    00001E59 D6 44            [ 7] 5606 	sub	a, #0x44
    00001E5B 20 26            [12] 5607 	jr	NZ, 00166$
    00001E5D                       5608 00165$:
                                   5609 ;C:\MSX\MSXgl-1.4.1\engine/src/print.c:1349: i32 val = (i32)va_arg(args, i32);
    00001E5D DD 6E F8         [19] 5610 	ld	l, -8 (ix)
    00001E60 DD 66 F9         [19] 5611 	ld	h, -7 (ix)
    00001E63 11 04 00         [10] 5612 	ld	de, #0x0004
    00001E66 19               [11] 5613 	add	hl, de
    00001E67 DD 75 F8         [19] 5614 	ld	-8 (ix), l
    00001E6A DD 74 F9         [19] 5615 	ld	-7 (ix), h
    00001E6D 7D               [ 4] 5616 	ld	a, l
    00001E6E C6 FC            [ 7] 5617 	add	a, #0xfc
    00001E70 6F               [ 4] 5618 	ld	l, a
                                   5619 ;	spillPairReg hl
                                   5620 ;	spillPairReg hl
    00001E71 7C               [ 4] 5621 	ld	a, h
    00001E72 CE FF            [ 7] 5622 	adc	a, #0xff
    00001E74 67               [ 4] 5623 	ld	h, a
                                   5624 ;	spillPairReg hl
                                   5625 ;	spillPairReg hl
    00001E75 5E               [ 7] 5626 	ld	e, (hl)
    00001E76 23               [ 6] 5627 	inc	hl
    00001E77 56               [ 7] 5628 	ld	d, (hl)
    00001E78 23               [ 6] 5629 	inc	hl
    00001E79 4E               [ 7] 5630 	ld	c, (hl)
    00001E7A 23               [ 6] 5631 	inc	hl
    00001E7B 66               [ 7] 5632 	ld	h, (hl)
                                   5633 ;	spillPairReg hl
                                   5634 ;C:\MSX\MSXgl-1.4.1\engine/src/print.c:1350: Print_DrawInt(val);
    00001E7C 69               [ 4] 5635 	ld	l, c
                                   5636 ;	spillPairReg hl
                                   5637 ;	spillPairReg hl
    00001E7D CDr1Dr1A         [17] 5638 	call	_Print_DrawInt
    00001E80 C3r9Ar21         [10] 5639 	jp	00193$
    00001E83                       5640 00166$:
                                   5641 ;C:\MSX\MSXgl-1.4.1\engine/src/print.c:1352: else if (*ptr == 'U')
    00001E83 DD 7E FE         [19] 5642 	ld	a, -2 (ix)
    00001E86 D6 55            [ 7] 5643 	sub	a, #0x55
    00001E88 20 26            [12] 5644 	jr	NZ, 00163$
                                   5645 ;C:\MSX\MSXgl-1.4.1\engine/src/print.c:1354: u32 val = (u32)va_arg(args, u32);
    00001E8A DD 6E F8         [19] 5646 	ld	l, -8 (ix)
    00001E8D DD 66 F9         [19] 5647 	ld	h, -7 (ix)
    00001E90 11 04 00         [10] 5648 	ld	de, #0x0004
    00001E93 19               [11] 5649 	add	hl, de
    00001E94 DD 75 F8         [19] 5650 	ld	-8 (ix), l
    00001E97 DD 74 F9         [19] 5651 	ld	-7 (ix), h
    00001E9A 7D               [ 4] 5652 	ld	a, l
    00001E9B C6 FC            [ 7] 5653 	add	a, #0xfc
    00001E9D 6F               [ 4] 5654 	ld	l, a
                                   5655 ;	spillPairReg hl
                                   5656 ;	spillPairReg hl
    00001E9E 7C               [ 4] 5657 	ld	a, h
    00001E9F CE FF            [ 7] 5658 	adc	a, #0xff
    00001EA1 67               [ 4] 5659 	ld	h, a
                                   5660 ;	spillPairReg hl
                                   5661 ;	spillPairReg hl
    00001EA2 5E               [ 7] 5662 	ld	e, (hl)
    00001EA3 23               [ 6] 5663 	inc	hl
    00001EA4 56               [ 7] 5664 	ld	d, (hl)
    00001EA5 23               [ 6] 5665 	inc	hl
    00001EA6 4E               [ 7] 5666 	ld	c, (hl)
    00001EA7 23               [ 6] 5667 	inc	hl
    00001EA8 66               [ 7] 5668 	ld	h, (hl)
                                   5669 ;	spillPairReg hl
                                   5670 ;C:\MSX\MSXgl-1.4.1\engine/src/print.c:1355: Print_DrawInt(val);
    00001EA9 69               [ 4] 5671 	ld	l, c
                                   5672 ;	spillPairReg hl
                                   5673 ;	spillPairReg hl
    00001EAA CDr1Dr1A         [17] 5674 	call	_Print_DrawInt
    00001EAD C3r9Ar21         [10] 5675 	jp	00193$
    00001EB0                       5676 00163$:
                                   5677 ;C:\MSX\MSXgl-1.4.1\engine/src/print.c:1357: else if (*ptr == 'X')
    00001EB0 DD 7E FE         [19] 5678 	ld	a, -2 (ix)
    00001EB3 D6 58            [ 7] 5679 	sub	a, #0x58
    00001EB5 C2r2Dr20         [10] 5680 	jp	NZ,00160$
                                   5681 ;C:\MSX\MSXgl-1.4.1\engine/src/print.c:1359: if (len == 0)
    00001EB8 DD 7E FF         [19] 5682 	ld	a, -1 (ix)
    00001EBB B7               [ 4] 5683 	or	a, a
    00001EBC 20 04            [12] 5684 	jr	NZ, 00125$
                                   5685 ;C:\MSX\MSXgl-1.4.1\engine/src/print.c:1360: len = 8;
    00001EBE DD 36 FF 08      [19] 5686 	ld	-1 (ix), #0x08
    00001EC2                       5687 00125$:
                                   5688 ;C:\MSX\MSXgl-1.4.1\engine/src/print.c:1361: u32 val = (u32)va_arg(args, u32);
    00001EC2 DD 6E F8         [19] 5689 	ld	l, -8 (ix)
    00001EC5 DD 66 F9         [19] 5690 	ld	h, -7 (ix)
    00001EC8 11 04 00         [10] 5691 	ld	de, #0x0004
    00001ECB 19               [11] 5692 	add	hl, de
    00001ECC DD 75 F8         [19] 5693 	ld	-8 (ix), l
    00001ECF DD 74 F9         [19] 5694 	ld	-7 (ix), h
    00001ED2 7D               [ 4] 5695 	ld	a, l
    00001ED3 C6 FC            [ 7] 5696 	add	a, #0xfc
    00001ED5 6F               [ 4] 5697 	ld	l, a
                                   5698 ;	spillPairReg hl
                                   5699 ;	spillPairReg hl
    00001ED6 7C               [ 4] 5700 	ld	a, h
    00001ED7 CE FF            [ 7] 5701 	adc	a, #0xff
    00001ED9 67               [ 4] 5702 	ld	h, a
                                   5703 ;	spillPairReg hl
                                   5704 ;	spillPairReg hl
    00001EDA 4E               [ 7] 5705 	ld	c, (hl)
    00001EDB 23               [ 6] 5706 	inc	hl
    00001EDC 46               [ 7] 5707 	ld	b, (hl)
    00001EDD 23               [ 6] 5708 	inc	hl
    00001EDE 5E               [ 7] 5709 	ld	e, (hl)
    00001EDF 23               [ 6] 5710 	inc	hl
    00001EE0 56               [ 7] 5711 	ld	d, (hl)
                                   5712 ;C:\MSX\MSXgl-1.4.1\engine/src/print.c:1363: if (len > 7)
    00001EE1 3E 07            [ 7] 5713 	ld	a, #0x07
    00001EE3 DD 96 FF         [19] 5714 	sub	a, -1 (ix)
    00001EE6 30 2D            [12] 5715 	jr	NC, 00127$
                                   5716 ;C:\MSX\MSXgl-1.4.1\engine/src/print.c:1364: Print_DrawChar(g_HexChar[(val >> 28) & 0xF]);
    00001EE8 DD 72 F4         [19] 5717 	ld	-12 (ix), d
    00001EEB AF               [ 4] 5718 	xor	a, a
    00001EEC DD 77 F5         [19] 5719 	ld	-11 (ix), a
    00001EEF DD 77 F6         [19] 5720 	ld	-10 (ix), a
    00001EF2 DD 77 F7         [19] 5721 	ld	-9 (ix), a
    00001EF5 3E 04            [ 7] 5722 	ld	a, #0x04
    00001EF7                       5723 00434$:
    00001EF7 DD CB F4 3E      [23] 5724 	srl	-12 (ix)
    00001EFB 3D               [ 4] 5725 	dec	a
    00001EFC 20 F9            [12] 5726 	jr	NZ, 00434$
    00001EFE DD 7E F4         [19] 5727 	ld	a, -12 (ix)
                                   5728 ;	spillPairReg hl
                                   5729 ;	spillPairReg hl
    00001F01 E6 0F            [ 7] 5730 	and	a, #0x0f
    00001F03 26 00            [ 7] 5731 	ld	h, #0x00
                                   5732 ;	spillPairReg hl
                                   5733 ;	spillPairReg hl
    00001F05 C6r32            [ 7] 5734 	add	a, #<(_g_HexChar)
    00001F07 6F               [ 4] 5735 	ld	l, a
                                   5736 ;	spillPairReg hl
                                   5737 ;	spillPairReg hl
    00001F08 7C               [ 4] 5738 	ld	a, h
    00001F09 CEs00            [ 7] 5739 	adc	a, #>(_g_HexChar)
    00001F0B 67               [ 4] 5740 	ld	h, a
    00001F0C 6E               [ 7] 5741 	ld	l, (hl)
                                   5742 ;	spillPairReg hl
    00001F0D C5               [11] 5743 	push	bc
    00001F0E D5               [11] 5744 	push	de
    00001F0F 7D               [ 4] 5745 	ld	a, l
    00001F10 CDrDCr18         [17] 5746 	call	_Print_DrawChar
    00001F13 D1               [10] 5747 	pop	de
    00001F14 C1               [10] 5748 	pop	bc
    00001F15                       5749 00127$:
                                   5750 ;C:\MSX\MSXgl-1.4.1\engine/src/print.c:1365: if (len > 6)
    00001F15 3E 06            [ 7] 5751 	ld	a, #0x06
    00001F17 DD 96 FF         [19] 5752 	sub	a, -1 (ix)
    00001F1A 30 15            [12] 5753 	jr	NC, 00129$
                                   5754 ;C:\MSX\MSXgl-1.4.1\engine/src/print.c:1366: Print_DrawChar(g_HexChar[(val >> 24) & 0xF]);
    00001F1C 7A               [ 4] 5755 	ld	a, d
                                   5756 ;	spillPairReg hl
                                   5757 ;	spillPairReg hl
    00001F1D E6 0F            [ 7] 5758 	and	a, #0x0f
    00001F1F 26 00            [ 7] 5759 	ld	h, #0x00
                                   5760 ;	spillPairReg hl
                                   5761 ;	spillPairReg hl
    00001F21 C6r32            [ 7] 5762 	add	a, #<(_g_HexChar)
    00001F23 6F               [ 4] 5763 	ld	l, a
                                   5764 ;	spillPairReg hl
                                   5765 ;	spillPairReg hl
    00001F24 7C               [ 4] 5766 	ld	a, h
    00001F25 CEs00            [ 7] 5767 	adc	a, #>(_g_HexChar)
    00001F27 67               [ 4] 5768 	ld	h, a
    00001F28 6E               [ 7] 5769 	ld	l, (hl)
                                   5770 ;	spillPairReg hl
    00001F29 C5               [11] 5771 	push	bc
    00001F2A D5               [11] 5772 	push	de
    00001F2B 7D               [ 4] 5773 	ld	a, l
    00001F2C CDrDCr18         [17] 5774 	call	_Print_DrawChar
    00001F2F D1               [10] 5775 	pop	de
    00001F30 C1               [10] 5776 	pop	bc
    00001F31                       5777 00129$:
                                   5778 ;C:\MSX\MSXgl-1.4.1\engine/src/print.c:1367: if (len > 5)
    00001F31 3E 05            [ 7] 5779 	ld	a, #0x05
    00001F33 DD 96 FF         [19] 5780 	sub	a, -1 (ix)
    00001F36 30 31            [12] 5781 	jr	NC, 00131$
                                   5782 ;C:\MSX\MSXgl-1.4.1\engine/src/print.c:1368: Print_DrawChar(g_HexChar[(val >> 20) & 0xF]);
    00001F38 DD 73 F4         [19] 5783 	ld	-12 (ix), e
    00001F3B DD 72 F5         [19] 5784 	ld	-11 (ix), d
    00001F3E AF               [ 4] 5785 	xor	a, a
    00001F3F DD 77 F6         [19] 5786 	ld	-10 (ix), a
    00001F42 DD 77 F7         [19] 5787 	ld	-9 (ix), a
    00001F45 3E 04            [ 7] 5788 	ld	a, #0x04
    00001F47                       5789 00436$:
    00001F47 DD CB F5 3E      [23] 5790 	srl	-11 (ix)
    00001F4B DD CB F4 1E      [23] 5791 	rr	-12 (ix)
    00001F4F 3D               [ 4] 5792 	dec	a
    00001F50 20 F5            [12] 5793 	jr	NZ, 00436$
    00001F52 DD 7E F4         [19] 5794 	ld	a, -12 (ix)
                                   5795 ;	spillPairReg hl
                                   5796 ;	spillPairReg hl
    00001F55 E6 0F            [ 7] 5797 	and	a, #0x0f
    00001F57 26 00            [ 7] 5798 	ld	h, #0x00
                                   5799 ;	spillPairReg hl
                                   5800 ;	spillPairReg hl
    00001F59 C6r32            [ 7] 5801 	add	a, #<(_g_HexChar)
    00001F5B 6F               [ 4] 5802 	ld	l, a
                                   5803 ;	spillPairReg hl
                                   5804 ;	spillPairReg hl
    00001F5C 7C               [ 4] 5805 	ld	a, h
    00001F5D CEs00            [ 7] 5806 	adc	a, #>(_g_HexChar)
    00001F5F 67               [ 4] 5807 	ld	h, a
    00001F60 6E               [ 7] 5808 	ld	l, (hl)
                                   5809 ;	spillPairReg hl
    00001F61 C5               [11] 5810 	push	bc
    00001F62 D5               [11] 5811 	push	de
    00001F63 7D               [ 4] 5812 	ld	a, l
    00001F64 CDrDCr18         [17] 5813 	call	_Print_DrawChar
    00001F67 D1               [10] 5814 	pop	de
    00001F68 C1               [10] 5815 	pop	bc
    00001F69                       5816 00131$:
                                   5817 ;C:\MSX\MSXgl-1.4.1\engine/src/print.c:1369: if (len > 4)
    00001F69 3E 04            [ 7] 5818 	ld	a, #0x04
    00001F6B DD 96 FF         [19] 5819 	sub	a, -1 (ix)
    00001F6E 30 15            [12] 5820 	jr	NC, 00133$
                                   5821 ;C:\MSX\MSXgl-1.4.1\engine/src/print.c:1370: Print_DrawChar(g_HexChar[(val >> 16) & 0xF]);
    00001F70 7B               [ 4] 5822 	ld	a, e
                                   5823 ;	spillPairReg hl
                                   5824 ;	spillPairReg hl
    00001F71 E6 0F            [ 7] 5825 	and	a, #0x0f
    00001F73 26 00            [ 7] 5826 	ld	h, #0x00
                                   5827 ;	spillPairReg hl
                                   5828 ;	spillPairReg hl
    00001F75 C6r32            [ 7] 5829 	add	a, #<(_g_HexChar)
    00001F77 6F               [ 4] 5830 	ld	l, a
                                   5831 ;	spillPairReg hl
                                   5832 ;	spillPairReg hl
    00001F78 7C               [ 4] 5833 	ld	a, h
    00001F79 CEs00            [ 7] 5834 	adc	a, #>(_g_HexChar)
    00001F7B 67               [ 4] 5835 	ld	h, a
    00001F7C 6E               [ 7] 5836 	ld	l, (hl)
                                   5837 ;	spillPairReg hl
    00001F7D C5               [11] 5838 	push	bc
    00001F7E D5               [11] 5839 	push	de
    00001F7F 7D               [ 4] 5840 	ld	a, l
    00001F80 CDrDCr18         [17] 5841 	call	_Print_DrawChar
    00001F83 D1               [10] 5842 	pop	de
    00001F84 C1               [10] 5843 	pop	bc
    00001F85                       5844 00133$:
                                   5845 ;C:\MSX\MSXgl-1.4.1\engine/src/print.c:1371: if (len > 3)
    00001F85 3E 03            [ 7] 5846 	ld	a, #0x03
    00001F87 DD 96 FF         [19] 5847 	sub	a, -1 (ix)
    00001F8A 30 35            [12] 5848 	jr	NC, 00135$
                                   5849 ;C:\MSX\MSXgl-1.4.1\engine/src/print.c:1372: Print_DrawChar(g_HexChar[(val >> 12) & 0xF]);
    00001F8C DD 70 F4         [19] 5850 	ld	-12 (ix), b
    00001F8F DD 73 F5         [19] 5851 	ld	-11 (ix), e
    00001F92 DD 72 F6         [19] 5852 	ld	-10 (ix), d
    00001F95 DD 36 F7 00      [19] 5853 	ld	-9 (ix), #0x00
    00001F99 3E 04            [ 7] 5854 	ld	a, #0x04
    00001F9B                       5855 00438$:
    00001F9B DD CB F6 3E      [23] 5856 	srl	-10 (ix)
    00001F9F DD CB F5 1E      [23] 5857 	rr	-11 (ix)
    00001FA3 DD CB F4 1E      [23] 5858 	rr	-12 (ix)
    00001FA7 3D               [ 4] 5859 	dec	a
    00001FA8 20 F1            [12] 5860 	jr	NZ, 00438$
    00001FAA DD 7E F4         [19] 5861 	ld	a, -12 (ix)
                                   5862 ;	spillPairReg hl
                                   5863 ;	spillPairReg hl
    00001FAD E6 0F            [ 7] 5864 	and	a, #0x0f
    00001FAF 6F               [ 4] 5865 	ld	l, a
                                   5866 ;	spillPairReg hl
                                   5867 ;	spillPairReg hl
    00001FB0 26 00            [ 7] 5868 	ld	h, #0x00
                                   5869 ;	spillPairReg hl
                                   5870 ;	spillPairReg hl
    00001FB2 D5               [11] 5871 	push	de
    00001FB3 11r32r00         [10] 5872 	ld	de, #_g_HexChar
    00001FB6 19               [11] 5873 	add	hl, de
    00001FB7 D1               [10] 5874 	pop	de
    00001FB8 6E               [ 7] 5875 	ld	l, (hl)
                                   5876 ;	spillPairReg hl
    00001FB9 C5               [11] 5877 	push	bc
    00001FBA D5               [11] 5878 	push	de
    00001FBB 7D               [ 4] 5879 	ld	a, l
    00001FBC CDrDCr18         [17] 5880 	call	_Print_DrawChar
    00001FBF D1               [10] 5881 	pop	de
    00001FC0 C1               [10] 5882 	pop	bc
    00001FC1                       5883 00135$:
                                   5884 ;C:\MSX\MSXgl-1.4.1\engine/src/print.c:1373: if (len > 2)
    00001FC1 3E 02            [ 7] 5885 	ld	a, #0x02
    00001FC3 DD 96 FF         [19] 5886 	sub	a, -1 (ix)
    00001FC6 30 15            [12] 5887 	jr	NC, 00137$
                                   5888 ;C:\MSX\MSXgl-1.4.1\engine/src/print.c:1374: Print_DrawChar(g_HexChar[(val >> 8) & 0xF]);
    00001FC8 78               [ 4] 5889 	ld	a, b
                                   5890 ;	spillPairReg hl
                                   5891 ;	spillPairReg hl
    00001FC9 E6 0F            [ 7] 5892 	and	a, #0x0f
    00001FCB 26 00            [ 7] 5893 	ld	h, #0x00
                                   5894 ;	spillPairReg hl
                                   5895 ;	spillPairReg hl
    00001FCD C6r32            [ 7] 5896 	add	a, #<(_g_HexChar)
    00001FCF 6F               [ 4] 5897 	ld	l, a
                                   5898 ;	spillPairReg hl
                                   5899 ;	spillPairReg hl
    00001FD0 7C               [ 4] 5900 	ld	a, h
    00001FD1 CEs00            [ 7] 5901 	adc	a, #>(_g_HexChar)
    00001FD3 67               [ 4] 5902 	ld	h, a
    00001FD4 6E               [ 7] 5903 	ld	l, (hl)
                                   5904 ;	spillPairReg hl
    00001FD5 C5               [11] 5905 	push	bc
    00001FD6 D5               [11] 5906 	push	de
    00001FD7 7D               [ 4] 5907 	ld	a, l
    00001FD8 CDrDCr18         [17] 5908 	call	_Print_DrawChar
    00001FDB D1               [10] 5909 	pop	de
    00001FDC C1               [10] 5910 	pop	bc
    00001FDD                       5911 00137$:
                                   5912 ;C:\MSX\MSXgl-1.4.1\engine/src/print.c:1375: if (len > 1)
    00001FDD 3E 01            [ 7] 5913 	ld	a, #0x01
    00001FDF DD 96 FF         [19] 5914 	sub	a, -1 (ix)
    00001FE2 30 38            [12] 5915 	jr	NC, 00139$
                                   5916 ;C:\MSX\MSXgl-1.4.1\engine/src/print.c:1376: Print_DrawChar(g_HexChar[(val >> 4) & 0xF]);
    00001FE4 DD 71 F4         [19] 5917 	ld	-12 (ix), c
    00001FE7 DD 70 F5         [19] 5918 	ld	-11 (ix), b
    00001FEA DD 73 F6         [19] 5919 	ld	-10 (ix), e
    00001FED DD 72 F7         [19] 5920 	ld	-9 (ix), d
    00001FF0 3E 04            [ 7] 5921 	ld	a, #0x04
    00001FF2                       5922 00440$:
    00001FF2 DD CB F7 3E      [23] 5923 	srl	-9 (ix)
    00001FF6 DD CB F6 1E      [23] 5924 	rr	-10 (ix)
    00001FFA DD CB F5 1E      [23] 5925 	rr	-11 (ix)
    00001FFE DD CB F4 1E      [23] 5926 	rr	-12 (ix)
    00002002 3D               [ 4] 5927 	dec	a
    00002003 20 ED            [12] 5928 	jr	NZ, 00440$
    00002005 DD 7E F4         [19] 5929 	ld	a, -12 (ix)
                                   5930 ;	spillPairReg hl
                                   5931 ;	spillPairReg hl
    00002008 E6 0F            [ 7] 5932 	and	a, #0x0f
    0000200A 26 00            [ 7] 5933 	ld	h, #0x00
                                   5934 ;	spillPairReg hl
                                   5935 ;	spillPairReg hl
    0000200C C6r32            [ 7] 5936 	add	a, #<(_g_HexChar)
    0000200E 6F               [ 4] 5937 	ld	l, a
                                   5938 ;	spillPairReg hl
                                   5939 ;	spillPairReg hl
    0000200F 7C               [ 4] 5940 	ld	a, h
    00002010 CEs00            [ 7] 5941 	adc	a, #>(_g_HexChar)
    00002012 67               [ 4] 5942 	ld	h, a
    00002013 6E               [ 7] 5943 	ld	l, (hl)
                                   5944 ;	spillPairReg hl
    00002014 C5               [11] 5945 	push	bc
    00002015 D5               [11] 5946 	push	de
    00002016 7D               [ 4] 5947 	ld	a, l
    00002017 CDrDCr18         [17] 5948 	call	_Print_DrawChar
    0000201A D1               [10] 5949 	pop	de
    0000201B C1               [10] 5950 	pop	bc
    0000201C                       5951 00139$:
                                   5952 ;C:\MSX\MSXgl-1.4.1\engine/src/print.c:1377: Print_DrawChar(g_HexChar[val & 0xF]);
    0000201C 79               [ 4] 5953 	ld	a, c
    0000201D E6 0F            [ 7] 5954 	and	a, #0x0f
    0000201F 4F               [ 4] 5955 	ld	c, a
    00002020 06 00            [ 7] 5956 	ld	b, #0x00
    00002022 21r32r00         [10] 5957 	ld	hl, #_g_HexChar
    00002025 09               [11] 5958 	add	hl, bc
    00002026 7E               [ 7] 5959 	ld	a, (hl)
    00002027 CDrDCr18         [17] 5960 	call	_Print_DrawChar
    0000202A C3r9Ar21         [10] 5961 	jp	00193$
    0000202D                       5962 00160$:
                                   5963 ;C:\MSX\MSXgl-1.4.1\engine/src/print.c:1379: else if (*ptr == 'B')
    0000202D DD 7E FE         [19] 5964 	ld	a, -2 (ix)
    00002030 D6 42            [ 7] 5965 	sub	a, #0x42
    00002032 C2rD9r20         [10] 5966 	jp	NZ,00157$
                                   5967 ;C:\MSX\MSXgl-1.4.1\engine/src/print.c:1381: if (len == 0)
    00002035 DD 7E FF         [19] 5968 	ld	a, -1 (ix)
    00002038 B7               [ 4] 5969 	or	a, a
    00002039 20 04            [12] 5970 	jr	NZ, 00141$
                                   5971 ;C:\MSX\MSXgl-1.4.1\engine/src/print.c:1382: len = 16;
    0000203B DD 36 FF 10      [19] 5972 	ld	-1 (ix), #0x10
    0000203F                       5973 00141$:
                                   5974 ;C:\MSX\MSXgl-1.4.1\engine/src/print.c:1383: u32 val = (u32)va_arg(args, u32);
    0000203F DD 6E F8         [19] 5975 	ld	l, -8 (ix)
    00002042 DD 66 F9         [19] 5976 	ld	h, -7 (ix)
    00002045 11 04 00         [10] 5977 	ld	de, #0x0004
    00002048 19               [11] 5978 	add	hl, de
    00002049 DD 75 F8         [19] 5979 	ld	-8 (ix), l
    0000204C DD 74 F9         [19] 5980 	ld	-7 (ix), h
    0000204F 11 FC FF         [10] 5981 	ld	de, #0xfffc
    00002052 19               [11] 5982 	add	hl, de
    00002053 EB               [ 4] 5983 	ex	de,hl
    00002054 21 04 00         [10] 5984 	ld	hl, #4
    00002057 39               [11] 5985 	add	hl, sp
    00002058 EB               [ 4] 5986 	ex	de, hl
    00002059 01 04 00         [10] 5987 	ld	bc, #0x0004
    0000205C ED B0            [21] 5988 	ldir
                                   5989 ;C:\MSX\MSXgl-1.4.1\engine/src/print.c:1384: u32 bit = 1 << (len - 1);
    0000205E DD 46 FF         [19] 5990 	ld	b, -1 (ix)
    00002061 05               [ 4] 5991 	dec	b
    00002062 21 01 00         [10] 5992 	ld	hl, #0x0001
    00002065 04               [ 4] 5993 	inc	b
    00002066 C3r6Ar20         [10] 5994 	jp	00445$
    00002069                       5995 00444$:
    00002069 29               [11] 5996 	add	hl, hl
    0000206A                       5997 00445$:
    0000206A 10 FD            [13] 5998 	djnz	00444$
    0000206C DD 75 F4         [19] 5999 	ld	-12 (ix), l
    0000206F 7C               [ 4] 6000 	ld	a, h
    00002070 DD 77 F5         [19] 6001 	ld	-11 (ix), a
    00002073 07               [ 4] 6002 	rlca
    00002074 9F               [ 4] 6003 	sbc	a, a
    00002075 DD 77 F6         [19] 6004 	ld	-10 (ix), a
    00002078 DD 77 F7         [19] 6005 	ld	-9 (ix), a
                                   6006 ;C:\MSX\MSXgl-1.4.1\engine/src/print.c:1385: while (bit)
    0000207B                       6007 00145$:
    0000207B DD 7E F7         [19] 6008 	ld	a, -9 (ix)
    0000207E DD B6 F6         [19] 6009 	or	a, -10 (ix)
    00002081 DD B6 F5         [19] 6010 	or	a, -11 (ix)
    00002084 DD B6 F4         [19] 6011 	or	a, -12 (ix)
    00002087 CAr9Ar21         [10] 6012 	jp	Z, 00193$
                                   6013 ;C:\MSX\MSXgl-1.4.1\engine/src/print.c:1387: if (val & bit)
    0000208A DD 7E F0         [19] 6014 	ld	a, -16 (ix)
    0000208D DD A6 F4         [19] 6015 	and	a, -12 (ix)
    00002090 DD 77 EC         [19] 6016 	ld	-20 (ix), a
    00002093 DD 7E F1         [19] 6017 	ld	a, -15 (ix)
    00002096 DD A6 F5         [19] 6018 	and	a, -11 (ix)
    00002099 DD 77 ED         [19] 6019 	ld	-19 (ix), a
    0000209C DD 7E F2         [19] 6020 	ld	a, -14 (ix)
    0000209F DD A6 F6         [19] 6021 	and	a, -10 (ix)
    000020A2 DD 77 EE         [19] 6022 	ld	-18 (ix), a
    000020A5 DD 7E F3         [19] 6023 	ld	a, -13 (ix)
    000020A8 DD A6 F7         [19] 6024 	and	a, -9 (ix)
    000020AB DD 77 EF         [19] 6025 	ld	-17 (ix), a
    000020AE DD B6 EE         [19] 6026 	or	a, -18 (ix)
    000020B1 DD B6 ED         [19] 6027 	or	a, -19 (ix)
    000020B4 DD B6 EC         [19] 6028 	or	a, -20 (ix)
    000020B7 28 08            [12] 6029 	jr	Z, 00143$
                                   6030 ;C:\MSX\MSXgl-1.4.1\engine/src/print.c:1388: Print_DrawChar('1');
    000020B9 3E 31            [ 7] 6031 	ld	a, #0x31
    000020BB CDrDCr18         [17] 6032 	call	_Print_DrawChar
    000020BE C3rC6r20         [10] 6033 	jp	00144$
    000020C1                       6034 00143$:
                                   6035 ;C:\MSX\MSXgl-1.4.1\engine/src/print.c:1390: Print_DrawChar('0');
    000020C1 3E 30            [ 7] 6036 	ld	a, #0x30
    000020C3 CDrDCr18         [17] 6037 	call	_Print_DrawChar
    000020C6                       6038 00144$:
                                   6039 ;C:\MSX\MSXgl-1.4.1\engine/src/print.c:1391: bit >>= 1;
    000020C6 DD CB F7 3E      [23] 6040 	srl	-9 (ix)
    000020CA DD CB F6 1E      [23] 6041 	rr	-10 (ix)
    000020CE DD CB F5 1E      [23] 6042 	rr	-11 (ix)
    000020D2 DD CB F4 1E      [23] 6043 	rr	-12 (ix)
    000020D6 C3r7Br20         [10] 6044 	jp	00145$
    000020D9                       6045 00157$:
                                   6046 ;C:\MSX\MSXgl-1.4.1\engine/src/print.c:1395: else if (*ptr == 'c')
    000020D9 DD 7E FE         [19] 6047 	ld	a, -2 (ix)
    000020DC D6 63            [ 7] 6048 	sub	a, #0x63
    000020DE 20 17            [12] 6049 	jr	NZ, 00154$
                                   6050 ;C:\MSX\MSXgl-1.4.1\engine/src/print.c:1397: c8 val = (c8)va_arg(args, u16);
    000020E0 DD 6E F8         [19] 6051 	ld	l, -8 (ix)
                                   6052 ;	spillPairReg hl
                                   6053 ;	spillPairReg hl
    000020E3 DD 66 F9         [19] 6054 	ld	h, -7 (ix)
                                   6055 ;	spillPairReg hl
                                   6056 ;	spillPairReg hl
    000020E6 23               [ 6] 6057 	inc	hl
    000020E7 23               [ 6] 6058 	inc	hl
    000020E8 DD 75 F8         [19] 6059 	ld	-8 (ix), l
    000020EB DD 74 F9         [19] 6060 	ld	-7 (ix), h
    000020EE 2B               [ 6] 6061 	dec	hl
    000020EF 2B               [ 6] 6062 	dec	hl
                                   6063 ;C:\MSX\MSXgl-1.4.1\engine/src/print.c:1398: Print_DrawChar(val);
    000020F0 7E               [ 7] 6064 	ld	a, (hl)
    000020F1 CDrDCr18         [17] 6065 	call	_Print_DrawChar
    000020F4 C3r9Ar21         [10] 6066 	jp	00193$
    000020F7                       6067 00154$:
                                   6068 ;C:\MSX\MSXgl-1.4.1\engine/src/print.c:1400: else if (*ptr == 's')
    000020F7 DD 7E FE         [19] 6069 	ld	a, -2 (ix)
    000020FA D6 73            [ 7] 6070 	sub	a, #0x73
    000020FC 20 1A            [12] 6071 	jr	NZ, 00151$
                                   6072 ;C:\MSX\MSXgl-1.4.1\engine/src/print.c:1402: const c8* val = (const c8*)va_arg(args, const c8*);
    000020FE DD 6E F8         [19] 6073 	ld	l, -8 (ix)
                                   6074 ;	spillPairReg hl
                                   6075 ;	spillPairReg hl
    00002101 DD 66 F9         [19] 6076 	ld	h, -7 (ix)
                                   6077 ;	spillPairReg hl
                                   6078 ;	spillPairReg hl
    00002104 23               [ 6] 6079 	inc	hl
    00002105 23               [ 6] 6080 	inc	hl
    00002106 DD 75 F8         [19] 6081 	ld	-8 (ix), l
    00002109 DD 74 F9         [19] 6082 	ld	-7 (ix), h
    0000210C 2B               [ 6] 6083 	dec	hl
    0000210D 2B               [ 6] 6084 	dec	hl
    0000210E 4E               [ 7] 6085 	ld	c, (hl)
    0000210F 23               [ 6] 6086 	inc	hl
    00002110 66               [ 7] 6087 	ld	h, (hl)
                                   6088 ;	spillPairReg hl
                                   6089 ;C:\MSX\MSXgl-1.4.1\engine/src/print.c:1403: Print_DrawText(val);
    00002111 69               [ 4] 6090 	ld	l, c
                                   6091 ;	spillPairReg hl
                                   6092 ;	spillPairReg hl
    00002112 CDr2Er19         [17] 6093 	call	_Print_DrawText
    00002115 C3r9Ar21         [10] 6094 	jp	00193$
    00002118                       6095 00151$:
                                   6096 ;C:\MSX\MSXgl-1.4.1\engine/src/print.c:1405: else if (*ptr == '%')
    00002118 DD 7E FE         [19] 6097 	ld	a, -2 (ix)
    0000211B D6 25            [ 7] 6098 	sub	a, #0x25
    0000211D 20 7B            [12] 6099 	jr	NZ, 00193$
                                   6100 ;C:\MSX\MSXgl-1.4.1\engine/src/print.c:1407: Print_DrawChar('%');
    0000211F 3E 25            [ 7] 6101 	ld	a, #0x25
    00002121 CDrDCr18         [17] 6102 	call	_Print_DrawChar
    00002124 C3r9Ar21         [10] 6103 	jp	00193$
    00002127                       6104 00192$:
                                   6105 ;C:\MSX\MSXgl-1.4.1\engine/src/print.c:1411: else if (*ptr == '\t')
    00002127 DD 7E FF         [19] 6106 	ld	a, -1 (ix)
    0000212A D6 09            [ 7] 6107 	sub	a, #0x09
    0000212C 20 32            [12] 6108 	jr	NZ, 00189$
                                   6109 ;C:\MSX\MSXgl-1.4.1\engine/src/print.h:492: PRINT_DATA.CursorX += PRINT_W(PRINT_DATA.UnitX) + PRINT_DATA.TabSize - 1;
    0000212E ED 4Br05r00      [20] 6110 	ld	bc, (#(_g_PrintData + 5) + 0)
    00002132 3Ar02r00         [13] 6111 	ld	a, (#(_g_PrintData + 2) + 0)
    00002135 5F               [ 4] 6112 	ld	e, a
    00002136 16 00            [ 7] 6113 	ld	d, #0x00
    00002138 3Ar04r00         [13] 6114 	ld	a, (#(_g_PrintData + 4) + 0)
    0000213B 6F               [ 4] 6115 	ld	l, a
                                   6116 ;	spillPairReg hl
                                   6117 ;	spillPairReg hl
    0000213C 26 00            [ 7] 6118 	ld	h, #0x00
                                   6119 ;	spillPairReg hl
                                   6120 ;	spillPairReg hl
    0000213E 19               [11] 6121 	add	hl, de
    0000213F 2B               [ 6] 6122 	dec	hl
    00002140 09               [11] 6123 	add	hl, bc
    00002141 EB               [ 4] 6124 	ex	de, hl
    00002142 ED 53r05r00      [20] 6125 	ld	((_g_PrintData + 5)), de
                                   6126 ;C:\MSX\MSXgl-1.4.1\engine/src/print.h:493: PRINT_DATA.CursorX &= ~(PRINT_DATA.TabSize - 1);
    00002146 3Ar04r00         [13] 6127 	ld	a, (#(_g_PrintData + 4) + 0)
    00002149 06 00            [ 7] 6128 	ld	b, #0x00
    0000214B 4F               [ 4] 6129 	ld	c, a
    0000214C 0B               [ 6] 6130 	dec	bc
    0000214D 79               [ 4] 6131 	ld	a, c
    0000214E 2F               [ 4] 6132 	cpl
    0000214F 4F               [ 4] 6133 	ld	c, a
    00002150 78               [ 4] 6134 	ld	a, b
    00002151 2F               [ 4] 6135 	cpl
    00002152 47               [ 4] 6136 	ld	b, a
    00002153 7B               [ 4] 6137 	ld	a, e
    00002154 A1               [ 4] 6138 	and	a, c
    00002155 4F               [ 4] 6139 	ld	c, a
    00002156 7A               [ 4] 6140 	ld	a, d
    00002157 A0               [ 4] 6141 	and	a, b
    00002158 47               [ 4] 6142 	ld	b, a
    00002159 ED 43r05r00      [20] 6143 	ld	((_g_PrintData + 5)), bc
                                   6144 ;C:\MSX\MSXgl-1.4.1\engine/src/print.c:1412: Print_Tab();
    0000215D C3r9Ar21         [10] 6145 	jp	00193$
    00002160                       6146 00189$:
                                   6147 ;C:\MSX\MSXgl-1.4.1\engine/src/print.c:1413: else if (*ptr == '\n')
    00002160 DD 7E FF         [19] 6148 	ld	a, -1 (ix)
    00002163 D6 0A            [ 7] 6149 	sub	a, #0x0a
    00002165 20 13            [12] 6150 	jr	NZ, 00186$
                                   6151 ;C:\MSX\MSXgl-1.4.1\engine/src/print.h:500: PRINT_DATA.CursorX = 0;
    00002167 21 00 00         [10] 6152 	ld	hl, #0x0000
    0000216A 22r05r00         [16] 6153 	ld	((_g_PrintData + 5)), hl
                                   6154 ;C:\MSX\MSXgl-1.4.1\engine/src/print.h:501: PRINT_DATA.CursorY += PRINT_H(PRINT_DATA.UnitY);
    0000216D 01r07r00         [10] 6155 	ld	bc, #_g_PrintData + 7
    00002170 0A               [ 7] 6156 	ld	a, (bc)
    00002171 21r03r00         [10] 6157 	ld	hl, #_g_PrintData + 3
    00002174 5E               [ 7] 6158 	ld	e, (hl)
    00002175 83               [ 4] 6159 	add	a, e
    00002176 02               [ 7] 6160 	ld	(bc), a
                                   6161 ;C:\MSX\MSXgl-1.4.1\engine/src/print.c:1414: Print_Return();
    00002177 C3r9Ar21         [10] 6162 	jp	00193$
    0000217A                       6163 00186$:
                                   6164 ;C:\MSX\MSXgl-1.4.1\engine/src/print.c:1416: else if (*ptr == ' ')
    0000217A DD 7E FF         [19] 6165 	ld	a, -1 (ix)
    0000217D D6 20            [ 7] 6166 	sub	a, #0x20
    0000217F 20 13            [12] 6167 	jr	NZ, 00183$
                                   6168 ;C:\MSX\MSXgl-1.4.1\engine/src/print.h:486: inline void Print_Space() { PRINT_DATA.CursorX += PRINT_W(PRINT_DATA.UnitX); }
    00002181 ED 4Br05r00      [20] 6169 	ld	bc, (#(_g_PrintData + 5) + 0)
    00002185 3Ar02r00         [13] 6170 	ld	a, (#(_g_PrintData + 2) + 0)
    00002188 6F               [ 4] 6171 	ld	l, a
                                   6172 ;	spillPairReg hl
                                   6173 ;	spillPairReg hl
    00002189 26 00            [ 7] 6174 	ld	h, #0x00
                                   6175 ;	spillPairReg hl
                                   6176 ;	spillPairReg hl
    0000218B 09               [11] 6177 	add	hl, bc
    0000218C EB               [ 4] 6178 	ex	de, hl
    0000218D ED 53r05r00      [20] 6179 	ld	((_g_PrintData + 5)), de
                                   6180 ;C:\MSX\MSXgl-1.4.1\engine/src/print.c:1417: Print_Space();
    00002191 C3r9Ar21         [10] 6181 	jp	00193$
    00002194                       6182 00183$:
                                   6183 ;C:\MSX\MSXgl-1.4.1\engine/src/print.c:1420: Print_DrawChar(*ptr);
    00002194 DD 7E FF         [19] 6184 	ld	a, -1 (ix)
    00002197 CDrDCr18         [17] 6185 	call	_Print_DrawChar
    0000219A                       6186 00193$:
                                   6187 ;C:\MSX\MSXgl-1.4.1\engine/src/print.c:1422: ptr++;
    0000219A DD 34 FC         [23] 6188 	inc	-4 (ix)
    0000219D C2r10r1B         [10] 6189 	jp	NZ,00194$
    000021A0 DD 34 FD         [23] 6190 	inc	-3 (ix)
    000021A3 C3r10r1B         [10] 6191 	jp	00194$
                                   6192 ;C:\MSX\MSXgl-1.4.1\engine/src/print.c:1425: va_end(args);
    000021A6                       6193 00200$:
                                   6194 ;C:\MSX\MSXgl-1.4.1\engine/src/print.c:1426: }
    000021A6 DD F9            [10] 6195 	ld	sp, ix
    000021A8 DD E1            [14] 6196 	pop	ix
    000021AA C9               [10] 6197 	ret
                                   6198 ;C:\MSX\MSXgl-1.4.1\engine/src/print.c:1436: void Print_DrawLineH(UX x, UY y, u8 len)
                                   6199 ;	---------------------------------
                                   6200 ; Function Print_DrawLineH
                                   6201 ; ---------------------------------
    000021AB                       6202 _Print_DrawLineH::
    000021AB DD E5            [15] 6203 	push	ix
    000021AD DD 21 00 00      [14] 6204 	ld	ix,#0
    000021B1 DD 39            [15] 6205 	add	ix,sp
    000021B3 EB               [ 4] 6206 	ex	de, hl
                                   6207 ;C:\MSX\MSXgl-1.4.1\engine/src/print.c:1438: Print_SetPosition(x, y);
    000021B4 DD 4E 04         [19] 6208 	ld	c, 4 (ix)
                                   6209 ;C:\MSX\MSXgl-1.4.1\engine/src/print.h:268: PRINT_DATA.CursorX = x;
    000021B7 ED 53r05r00      [20] 6210 	ld	((_g_PrintData + 5)), de
                                   6211 ;C:\MSX\MSXgl-1.4.1\engine/src/print.h:269: PRINT_DATA.CursorY = y;
    000021BB 21r07r00         [10] 6212 	ld	hl, #(_g_PrintData + 7)
    000021BE 71               [ 7] 6213 	ld	(hl), c
                                   6214 ;C:\MSX\MSXgl-1.4.1\engine/src/print.c:1439: Print_DrawCharX(0x17, len);
    000021BF DD 6E 05         [19] 6215 	ld	l, 5 (ix)
                                   6216 ;	spillPairReg hl
                                   6217 ;	spillPairReg hl
    000021C2 3E 17            [ 7] 6218 	ld	a, #0x17
    000021C4 CDr1Cr19         [17] 6219 	call	_Print_DrawCharX
                                   6220 ;C:\MSX\MSXgl-1.4.1\engine/src/print.c:1440: }
    000021C7 DD E1            [14] 6221 	pop	ix
    000021C9 E1               [10] 6222 	pop	hl
    000021CA F1               [10] 6223 	pop	af
    000021CB E9               [ 4] 6224 	jp	(hl)
                                   6225 ;C:\MSX\MSXgl-1.4.1\engine/src/print.c:1444: void Print_DrawLineV(UX x, UY y, u8 len)
                                   6226 ;	---------------------------------
                                   6227 ; Function Print_DrawLineV
                                   6228 ; ---------------------------------
    000021CC                       6229 _Print_DrawLineV::
    000021CC DD E5            [15] 6230 	push	ix
    000021CE DD 21 00 00      [14] 6231 	ld	ix,#0
    000021D2 DD 39            [15] 6232 	add	ix,sp
    000021D4 EB               [ 4] 6233 	ex	de, hl
                                   6234 ;C:\MSX\MSXgl-1.4.1\engine/src/print.c:1446: for (u8 i = 0; i < len; i++)
    000021D5 0E 00            [ 7] 6235 	ld	c, #0x00
    000021D7                       6236 00104$:
    000021D7 79               [ 4] 6237 	ld	a, c
    000021D8 DD 96 05         [19] 6238 	sub	a, 5 (ix)
    000021DB 30 1A            [12] 6239 	jr	NC, 00106$
                                   6240 ;C:\MSX\MSXgl-1.4.1\engine/src/print.c:1448: Print_SetPosition(x, y + i);
    000021DD DD 7E 04         [19] 6241 	ld	a, 4 (ix)
    000021E0 81               [ 4] 6242 	add	a, c
    000021E1 47               [ 4] 6243 	ld	b, a
                                   6244 ;C:\MSX\MSXgl-1.4.1\engine/src/print.h:268: PRINT_DATA.CursorX = x;
    000021E2 ED 53r05r00      [20] 6245 	ld	((_g_PrintData + 5)), de
                                   6246 ;C:\MSX\MSXgl-1.4.1\engine/src/print.h:269: PRINT_DATA.CursorY = y;
    000021E6 21r07r00         [10] 6247 	ld	hl, #(_g_PrintData + 7)
    000021E9 70               [ 7] 6248 	ld	(hl), b
                                   6249 ;C:\MSX\MSXgl-1.4.1\engine/src/print.c:1449: Print_DrawChar(0x16);
    000021EA C5               [11] 6250 	push	bc
    000021EB D5               [11] 6251 	push	de
    000021EC 3E 16            [ 7] 6252 	ld	a, #0x16
    000021EE CDrDCr18         [17] 6253 	call	_Print_DrawChar
    000021F1 D1               [10] 6254 	pop	de
    000021F2 C1               [10] 6255 	pop	bc
                                   6256 ;C:\MSX\MSXgl-1.4.1\engine/src/print.c:1446: for (u8 i = 0; i < len; i++)
    000021F3 0C               [ 4] 6257 	inc	c
    000021F4 C3rD7r21         [10] 6258 	jp	00104$
    000021F7                       6259 00106$:
                                   6260 ;C:\MSX\MSXgl-1.4.1\engine/src/print.c:1451: }
    000021F7 DD E1            [14] 6261 	pop	ix
    000021F9 E1               [10] 6262 	pop	hl
    000021FA F1               [10] 6263 	pop	af
    000021FB E9               [ 4] 6264 	jp	(hl)
                                   6265 ;C:\MSX\MSXgl-1.4.1\engine/src/print.c:1455: void Print_DrawBox(UX x, UY y, u8 width, u8 height)
                                   6266 ;	---------------------------------
                                   6267 ; Function Print_DrawBox
                                   6268 ; ---------------------------------
    000021FC                       6269 _Print_DrawBox::
    000021FC DD E5            [15] 6270 	push	ix
    000021FE DD 21 00 00      [14] 6271 	ld	ix,#0
    00002202 DD 39            [15] 6272 	add	ix,sp
    00002204 F5               [11] 6273 	push	af
    00002205 F5               [11] 6274 	push	af
    00002206 3B               [ 6] 6275 	dec	sp
    00002207 EB               [ 4] 6276 	ex	de, hl
                                   6277 ;C:\MSX\MSXgl-1.4.1\engine/src/print.c:1458: Print_SetPosition(x, y);
    00002208 DD 7E 04         [19] 6278 	ld	a, 4 (ix)
    0000220B DD 77 FB         [19] 6279 	ld	-5 (ix), a
                                   6280 ;C:\MSX\MSXgl-1.4.1\engine/src/print.h:268: PRINT_DATA.CursorX = x;
    0000220E ED 53r05r00      [20] 6281 	ld	((_g_PrintData + 5)), de
                                   6282 ;C:\MSX\MSXgl-1.4.1\engine/src/print.h:269: PRINT_DATA.CursorY = y;
    00002212 21r07r00         [10] 6283 	ld	hl, #(_g_PrintData + 7)
    00002215 DD 7E FB         [19] 6284 	ld	a, -5 (ix)
    00002218 77               [ 7] 6285 	ld	(hl), a
                                   6286 ;C:\MSX\MSXgl-1.4.1\engine/src/print.c:1459: Print_DrawChar(0x18);
    00002219 D5               [11] 6287 	push	de
    0000221A 3E 18            [ 7] 6288 	ld	a, #0x18
    0000221C CDrDCr18         [17] 6289 	call	_Print_DrawChar
    0000221F D1               [10] 6290 	pop	de
                                   6291 ;C:\MSX\MSXgl-1.4.1\engine/src/print.c:1460: Print_SetPosition(x + width - 1, y);
    00002220 DD 4E 05         [19] 6292 	ld	c, 5 (ix)
    00002223 06 00            [ 7] 6293 	ld	b, #0x00
    00002225 DD 73 FC         [19] 6294 	ld	-4 (ix), e
    00002228 DD 72 FD         [19] 6295 	ld	-3 (ix), d
    0000222B 6B               [ 4] 6296 	ld	l, e
    0000222C 62               [ 4] 6297 	ld	h, d
    0000222D 09               [11] 6298 	add	hl, bc
    0000222E 2B               [ 6] 6299 	dec	hl
    0000222F DD 75 FE         [19] 6300 	ld	-2 (ix), l
    00002232 DD 74 FF         [19] 6301 	ld	-1 (ix), h
    00002235 4D               [ 4] 6302 	ld	c, l
    00002236 44               [ 4] 6303 	ld	b, h
                                   6304 ;C:\MSX\MSXgl-1.4.1\engine/src/print.h:268: PRINT_DATA.CursorX = x;
    00002237 ED 43r05r00      [20] 6305 	ld	((_g_PrintData + 5)), bc
                                   6306 ;C:\MSX\MSXgl-1.4.1\engine/src/print.h:269: PRINT_DATA.CursorY = y;
    0000223B 21r07r00         [10] 6307 	ld	hl, #(_g_PrintData + 7)
    0000223E DD 7E FB         [19] 6308 	ld	a, -5 (ix)
    00002241 77               [ 7] 6309 	ld	(hl), a
                                   6310 ;C:\MSX\MSXgl-1.4.1\engine/src/print.c:1461: Print_DrawChar(0x19);
    00002242 D5               [11] 6311 	push	de
    00002243 3E 19            [ 7] 6312 	ld	a, #0x19
    00002245 CDrDCr18         [17] 6313 	call	_Print_DrawChar
    00002248 D1               [10] 6314 	pop	de
                                   6315 ;C:\MSX\MSXgl-1.4.1\engine/src/print.c:1462: Print_SetPosition(x, y + height - 1);
    00002249 DD 7E FB         [19] 6316 	ld	a, -5 (ix)
    0000224C DD 86 06         [19] 6317 	add	a, 6 (ix)
    0000224F 3D               [ 4] 6318 	dec	a
    00002250 4F               [ 4] 6319 	ld	c, a
                                   6320 ;C:\MSX\MSXgl-1.4.1\engine/src/print.h:268: PRINT_DATA.CursorX = x;
    00002251 ED 53r05r00      [20] 6321 	ld	((_g_PrintData + 5)), de
                                   6322 ;C:\MSX\MSXgl-1.4.1\engine/src/print.h:269: PRINT_DATA.CursorY = y;
    00002255 32r07r00         [13] 6323 	ld	(#(_g_PrintData + 7)),a
                                   6324 ;C:\MSX\MSXgl-1.4.1\engine/src/print.c:1463: Print_DrawChar(0x1A);
    00002258 C5               [11] 6325 	push	bc
    00002259 D5               [11] 6326 	push	de
    0000225A 3E 1A            [ 7] 6327 	ld	a, #0x1a
    0000225C CDrDCr18         [17] 6328 	call	_Print_DrawChar
    0000225F D1               [10] 6329 	pop	de
    00002260 C1               [10] 6330 	pop	bc
                                   6331 ;C:\MSX\MSXgl-1.4.1\engine/src/print.h:268: PRINT_DATA.CursorX = x;
    00002261 21r05r00         [10] 6332 	ld	hl, #(_g_PrintData + 5)
    00002264 DD 7E FE         [19] 6333 	ld	a, -2 (ix)
    00002267 77               [ 7] 6334 	ld	(hl), a
    00002268 23               [ 6] 6335 	inc	hl
    00002269 DD 7E FF         [19] 6336 	ld	a, -1 (ix)
    0000226C 77               [ 7] 6337 	ld	(hl), a
                                   6338 ;C:\MSX\MSXgl-1.4.1\engine/src/print.h:269: PRINT_DATA.CursorY = y;
    0000226D 21r07r00         [10] 6339 	ld	hl, #(_g_PrintData + 7)
    00002270 71               [ 7] 6340 	ld	(hl), c
                                   6341 ;C:\MSX\MSXgl-1.4.1\engine/src/print.c:1465: Print_DrawChar(0x1B);
    00002271 C5               [11] 6342 	push	bc
    00002272 D5               [11] 6343 	push	de
    00002273 3E 1B            [ 7] 6344 	ld	a, #0x1b
    00002275 CDrDCr18         [17] 6345 	call	_Print_DrawChar
    00002278 D1               [10] 6346 	pop	de
    00002279 C1               [10] 6347 	pop	bc
                                   6348 ;C:\MSX\MSXgl-1.4.1\engine/src/print.c:1468: Print_DrawLineH(x + 1, y,              width - 2);
    0000227A DD 46 05         [19] 6349 	ld	b, 5 (ix)
    0000227D 05               [ 4] 6350 	dec	b
    0000227E 05               [ 4] 6351 	dec	b
    0000227F DD 6E FC         [19] 6352 	ld	l, -4 (ix)
                                   6353 ;	spillPairReg hl
                                   6354 ;	spillPairReg hl
    00002282 DD 66 FD         [19] 6355 	ld	h, -3 (ix)
                                   6356 ;	spillPairReg hl
                                   6357 ;	spillPairReg hl
    00002285 23               [ 6] 6358 	inc	hl
    00002286 E5               [11] 6359 	push	hl
    00002287 C5               [11] 6360 	push	bc
    00002288 D5               [11] 6361 	push	de
    00002289 C5               [11] 6362 	push	bc
    0000228A 33               [ 6] 6363 	inc	sp
    0000228B DD 7E FB         [19] 6364 	ld	a, -5 (ix)
    0000228E F5               [11] 6365 	push	af
    0000228F 33               [ 6] 6366 	inc	sp
    00002290 CDrABr21         [17] 6367 	call	_Print_DrawLineH
    00002293 D1               [10] 6368 	pop	de
    00002294 C1               [10] 6369 	pop	bc
    00002295 E1               [10] 6370 	pop	hl
                                   6371 ;C:\MSX\MSXgl-1.4.1\engine/src/print.c:1469: Print_DrawLineH(x + 1, y + height - 1, width - 2);
    00002296 D5               [11] 6372 	push	de
    00002297 C5               [11] 6373 	push	bc
    00002298 CDrABr21         [17] 6374 	call	_Print_DrawLineH
    0000229B D1               [10] 6375 	pop	de
                                   6376 ;C:\MSX\MSXgl-1.4.1\engine/src/print.c:1472: Print_DrawLineV(x,             y + 1, height - 2);
    0000229C DD 46 06         [19] 6377 	ld	b, 6 (ix)
    0000229F 05               [ 4] 6378 	dec	b
    000022A0 05               [ 4] 6379 	dec	b
    000022A1 DD 4E FB         [19] 6380 	ld	c, -5 (ix)
    000022A4 0C               [ 4] 6381 	inc	c
    000022A5 C5               [11] 6382 	push	bc
    000022A6 C5               [11] 6383 	push	bc
    000022A7 EB               [ 4] 6384 	ex	de, hl
    000022A8 CDrCCr21         [17] 6385 	call	_Print_DrawLineV
    000022AB DD 6E FE         [19] 6386 	ld	l, -2 (ix)
                                   6387 ;	spillPairReg hl
                                   6388 ;	spillPairReg hl
    000022AE DD 66 FF         [19] 6389 	ld	h, -1 (ix)
                                   6390 ;	spillPairReg hl
                                   6391 ;	spillPairReg hl
    000022B1 CDrCCr21         [17] 6392 	call	_Print_DrawLineV
                                   6393 ;C:\MSX\MSXgl-1.4.1\engine/src/print.c:1474: }
    000022B4 DD F9            [10] 6394 	ld	sp, ix
    000022B6 DD E1            [14] 6395 	pop	ix
    000022B8 E1               [10] 6396 	pop	hl
    000022B9 F1               [10] 6397 	pop	af
    000022BA 33               [ 6] 6398 	inc	sp
    000022BB E9               [ 4] 6399 	jp	(hl)
                                   6400 	.area _CODE
                                   6401 	.area _INITIALIZER
    00000000                       6402 __xinit__g_PrintInvalid:
    00000000 FF                    6403 	.db #0xff	; 255
    00000001 81                    6404 	.db #0x81	; 129
    00000002 81                    6405 	.db #0x81	; 129
    00000003 81                    6406 	.db #0x81	; 129
    00000004 81                    6407 	.db #0x81	; 129
    00000005 81                    6408 	.db #0x81	; 129
    00000006 81                    6409 	.db #0x81	; 129
    00000007 FF                    6410 	.db #0xff	; 255
                                   6411 	.area _CABS (ABS)
